

Microchip Technology PIC18 LITE Macro Assembler V1.36 build -262312587 
                                                                                               Fri Apr 22 11:58:01 2016

Microchip Technology Omniscient Code Generator v1.36 (Free mode) build 201601150325
     1                           	processor	18F46K22
     2                           	fnconf	rparam,??,?,0
     3                           	opt	pw 120
     4                           	opt	lm
     5                           	psect	idataCOMRAM,global,class=CODE,delta=1
     6                           	psect	smallconst,global,reloc=2,class=SMALLCONST,delta=1
     7                           	psect	cinit,global,reloc=2,class=CODE,delta=1
     8                           	psect	bssCOMRAM,global,class=COMRAM,space=1,delta=1
     9                           	psect	dataCOMRAM,global,class=COMRAM,space=1,delta=1
    10                           	psect	cstackBANK0,global,class=BANK0,space=1,delta=1
    11                           	psect	cstackCOMRAM,global,class=COMRAM,space=1,delta=1
    12                           	psect	text0,global,reloc=2,class=CODE,delta=1
    13                           	psect	text1,global,reloc=2,class=CODE,delta=1
    14                           	psect	text2,global,reloc=2,class=CODE,delta=1
    15                           	psect	text3,global,reloc=2,class=CODE,delta=1
    16                           	psect	text4,global,reloc=2,class=CODE,delta=1
    17                           	psect	text5,global,reloc=2,class=CODE,delta=1
    18                           	psect	text6,global,reloc=2,class=CODE,delta=1
    19                           	psect	text7,global,reloc=2,class=CODE,delta=1
    20                           	psect	text8,global,reloc=2,class=CODE,delta=1
    21                           	psect	text9,global,reloc=2,class=CODE,delta=1
    22                           	psect	text10,global,reloc=2,class=CODE,delta=1
    23                           	psect	text11,global,reloc=2,class=CODE,delta=1
    24                           	psect	text12,global,reloc=2,class=CODE,delta=1
    25                           	psect	text13,global,reloc=2,class=CODE,delta=1
    26                           	psect	text14,global,reloc=2,class=CODE,delta=1
    27                           	psect	text15,global,reloc=2,class=CODE,delta=1
    28                           	psect	intcode,global,reloc=2,class=CODE,delta=1
    29                           	psect	intsave_regs,global,class=BIGRAM,space=1,delta=1
    30                           	psect	rparam,global,class=COMRAM,space=1,delta=1
    31                           	psect	temp,global,ovrld,common,class=COMRAM,space=1,delta=1
    32  0000                     
    33                           	psect	idataCOMRAM
    34  001870                     __pidataCOMRAM:
    35                           	opt stack 0
    36                           
    37                           ;initializer for _leftWheelCommandedPW
    38  001870  02B0               	dw	688
    39                           
    40                           ;initializer for _rightWheelCommandedPW
    41  001872  02A3               	dw	675
    42                           
    43                           	psect	smallconst
    44  001000                     __psmallconst:
    45                           	opt stack 0
    46  001000  00                 	db	0
    47  001001                     _dpowers:
    48                           	opt stack 0
    49  001001  0001               	dw	1
    50  001003  000A               	dw	10
    51  001005  0064               	dw	100
    52  001007  03E8               	dw	1000
    53  001009  2710               	dw	10000
    54  00100B                     __end_of_dpowers:
    55                           	opt stack 0
    56  0000                     _CCPR3	set	3934
    57  0000                     _TMR5	set	3919
    58  0000                     _ANSELBbits	set	3897
    59  0000                     _ANSELD	set	3899
    60  0000                     _CCP3CON	set	3933
    61  0000                     _CCP3CONbits	set	3933
    62  0000                     _CCPTMRS0bits	set	3913
    63  0000                     _T5CON	set	3918
    64  0000                     _T5CONbits	set	3918
    65  0000                     _VREFCON0bits	set	3906
    66  0000                     _TMR5ON	set	31344
    67  0000                     _CCPR2	set	3943
    68  0000                     _TMR1	set	4046
    69  0000                     _CCP2CON	set	3942
    70  0000                     _CCP2CONbits	set	3942
    71  0000                     _CM2CON0	set	3960
    72  0000                     _CM2CON0bits	set	3960
    73  0000                     _CM2CON1bits	set	3959
    74  0000                     _INTCONbits	set	4082
    75  0000                     _LATA	set	3977
    76  0000                     _LATDbits	set	3980
    77  0000                     _LATEbits	set	3981
    78  0000                     _OSCCONbits	set	4051
    79  0000                     _PIE1bits	set	3997
    80  0000                     _PIE2bits	set	4000
    81  0000                     _PIR1bits	set	3998
    82  0000                     _PIR2bits	set	4001
    83  0000                     _PORTAbits	set	3968
    84  0000                     _PORTBbits	set	3969
    85  0000                     _PR2	set	4027
    86  0000                     _T1CON	set	4045
    87  0000                     _T1CONbits	set	4045
    88  0000                     _T2CON	set	4026
    89  0000                     _T2CONbits	set	4026
    90  0000                     _TRISA	set	3986
    91  0000                     _TRISAbits	set	3986
    92  0000                     _TRISBbits	set	3987
    93  0000                     _TRISDbits	set	3989
    94  0000                     _TRISEbits	set	3990
    95  0000                     _WPUBbits	set	3937
    96  0000                     _C2IE	set	32005
    97  0000                     _C2IF	set	32013
    98  0000                     _CCP2IE	set	32000
    99  0000                     _CCP2IF	set	32008
   100  0000                     _CCP3IE	set	31696
   101  0000                     _CCP3IF	set	31704
   102  0000                     _TMR1ON	set	32360
   103  0000                     _TMR2IE	set	31977
   104  0000                     _TMR2IF	set	31985
   105  00100B                     STR_1:
   106  00100B  45                 	db	69	;'E'
   107  00100C  76                 	db	118	;'v'
   108  00100D  65                 	db	101	;'e'
   109  00100E  6E                 	db	110	;'n'
   110  00100F  74                 	db	116	;'t'
   111  001010  3A                 	db	58	;':'
   112  001011  20                 	db	32
   113  001012  25                 	db	37
   114  001013  33                 	db	51	;'3'
   115  001014  64                 	db	100	;'d'
   116  001015  00                 	db	0
   117  001016                     STR_2:
   118  001016  53                 	db	83	;'S'
   119  001017  70                 	db	112	;'p'
   120  001018  65                 	db	101	;'e'
   121  001019  65                 	db	101	;'e'
   122  00101A  64                 	db	100	;'d'
   123  00101B  3A                 	db	58	;':'
   124  00101C  20                 	db	32
   125  00101D  25                 	db	37
   126  00101E  64                 	db	100	;'d'
   127  00101F  00                 	db	0
   128                           
   129                           ; #config settings
   130  001020  00                 	db	0	; dummy byte at the end
   131  0000                     
   132                           	psect	cinit
   133  00176E                     __pcinit:
   134                           	opt stack 0
   135  00176E                     start_initialization:
   136                           	opt stack 0
   137  00176E                     __initialization:
   138                           	opt stack 0
   139                           
   140                           ; Clear objects allocated to COMRAM (19 bytes)
   141  00176E  EE00  F037         	lfsr	0,__pbssCOMRAM
   142  001772  0E13               	movlw	19
   143  001774                     clear_0:
   144  001774  6AEE               	clrf	postinc0,c
   145  001776  06E8               	decf	wreg,f,c
   146  001778  E1FD               	bnz	clear_0
   147                           
   148                           ; Initialize objects allocated to COMRAM (4 bytes)
   149                           ; load TBLPTR registers with __pidataCOMRAM
   150  00177A  0E70               	movlw	low __pidataCOMRAM
   151  00177C  6EF6               	movwf	tblptrl,c
   152  00177E  0E18               	movlw	high __pidataCOMRAM
   153  001780  6EF7               	movwf	tblptrh,c
   154  001782  0E00               	movlw	low (__pidataCOMRAM shr (0+16))
   155  001784  6EF8               	movwf	tblptru,c
   156  001786  EE00  F04A         	lfsr	0,__pdataCOMRAM
   157  00178A  EE10 F004          	lfsr	1,4
   158  00178E                     copy_data0:
   159  00178E  0009               	tblrd		*+
   160  001790  CFF5 FFEE          	movff	tablat,postinc0
   161  001794  50E5               	movf	postdec1,w,c
   162  001796  50E1               	movf	fsr1l,w,c
   163  001798  E1FA               	bnz	copy_data0
   164  00179A                     end_of_initialization:
   165                           	opt stack 0
   166  00179A                     __end_of__initialization:
   167                           	opt stack 0
   168  00179A  904E               	bcf	int$flags,0,c	;clear compiler interrupt flag (level 1)
   169  00179C  924E               	bcf	int$flags,1,c	;clear compiler interrupt flag (level 2)
   170  00179E  0E00               	movlw	low (__Lmediumconst shr (0+16))
   171  0017A0  6EF8               	movwf	tblptru,c
   172  0017A2  0100               	movlb	0
   173  0017A4  EF11  F008         	goto	_main	;jump to C main() function
   174                           tblptru	equ	0xFF8
   175                           tblptrh	equ	0xFF7
   176                           tblptrl	equ	0xFF6
   177                           tablat	equ	0xFF5
   178                           postinc0	equ	0xFEE
   179                           wreg	equ	0xFE8
   180                           postdec1	equ	0xFE5
   181                           fsr1l	equ	0xFE1
   182                           
   183                           	psect	bssCOMRAM
   184  000037                     __pbssCOMRAM:
   185                           	opt stack 0
   186  000037                     _elapsedMillis:
   187                           	opt stack 0
   188  000037                     	ds	4
   189  00003B                     _leftWheelCount:
   190                           	opt stack 0
   191  00003B                     	ds	4
   192  00003F                     _rightWheelCount:
   193                           	opt stack 0
   194  00003F                     	ds	4
   195  000043                     _speedCompensation:
   196                           	opt stack 0
   197  000043                     	ds	2
   198  000045                     _event:
   199                           	opt stack 0
   200  000045                     	ds	1
   201  000046                     _leftWheelMeasuredSpeed:
   202                           	opt stack 0
   203  000046                     	ds	2
   204  000048                     _rightWheelMeasuredSpeed:
   205                           	opt stack 0
   206  000048                     	ds	2
   207                           tblptru	equ	0xFF8
   208                           tblptrh	equ	0xFF7
   209                           tblptrl	equ	0xFF6
   210                           tablat	equ	0xFF5
   211                           postinc0	equ	0xFEE
   212                           wreg	equ	0xFE8
   213                           postdec1	equ	0xFE5
   214                           fsr1l	equ	0xFE1
   215                           
   216                           	psect	dataCOMRAM
   217  00004A                     __pdataCOMRAM:
   218                           	opt stack 0
   219  00004A                     _leftWheelCommandedPW:
   220                           	opt stack 0
   221  00004A                     	ds	2
   222  00004C                     _rightWheelCommandedPW:
   223                           	opt stack 0
   224  00004C                     	ds	2
   225                           tblptru	equ	0xFF8
   226                           tblptrh	equ	0xFF7
   227                           tblptrl	equ	0xFF6
   228                           tablat	equ	0xFF5
   229                           postinc0	equ	0xFEE
   230                           wreg	equ	0xFE8
   231                           postdec1	equ	0xFE5
   232                           fsr1l	equ	0xFE1
   233                           
   234                           	psect	cstackBANK0
   235  000060                     __pcstackBANK0:
   236                           	opt stack 0
   237  000060                     main@controlLastMillis:
   238                           	opt stack 0
   239                           
   240                           ; 4 bytes @ 0x0
   241  000060                     	ds	4
   242  000064                     main@lcdLastMillis:
   243                           	opt stack 0
   244                           
   245                           ; 4 bytes @ 0x4
   246  000064                     	ds	4
   247  000068                     main@leftCountTracker:
   248                           	opt stack 0
   249                           
   250                           ; 2 bytes @ 0x8
   251  000068                     	ds	2
   252  00006A                     main@rightCountTracker:
   253                           	opt stack 0
   254                           
   255                           ; 2 bytes @ 0xA
   256  00006A                     	ds	2
   257  00006C                     main@speedLastMillis:
   258                           	opt stack 0
   259                           
   260                           ; 4 bytes @ 0xC
   261  00006C                     	ds	4
   262                           tblptru	equ	0xFF8
   263                           tblptrh	equ	0xFF7
   264                           tblptrl	equ	0xFF6
   265                           tablat	equ	0xFF5
   266                           postinc0	equ	0xFEE
   267                           wreg	equ	0xFE8
   268                           postdec1	equ	0xFE5
   269                           fsr1l	equ	0xFE1
   270                           
   271                           	psect	cstackCOMRAM
   272  000001                     __pcstackCOMRAM:
   273                           	opt stack 0
   274  000001                     ??_ISR:
   275  000001                     
   276                           ; 1 bytes @ 0x0
   277  000001                     	ds	16
   278  000011                     ISR@dummy:
   279                           	opt stack 0
   280                           
   281                           ; 1 bytes @ 0x10
   282  000011                     	ds	1
   283  000012                     ??_isdigit:
   284  000012                     ?___wmul:
   285                           	opt stack 0
   286  000012                     ?___lwdiv:
   287                           	opt stack 0
   288  000012                     ?___lmul:
   289                           	opt stack 0
   290  000012                     LCDcmd@command:
   291                           	opt stack 0
   292  000012                     ___wmul@multiplier:
   293                           	opt stack 0
   294  000012                     ___lwdiv@dividend:
   295                           	opt stack 0
   296  000012                     ___lmul@multiplier:
   297                           	opt stack 0
   298                           
   299                           ; 4 bytes @ 0x11
   300  000012                     	ds	1
   301  000013                     ??_LCDinit:
   302  000013                     LCDwrite@input:
   303                           	opt stack 0
   304  000013                     _isdigit$1662:
   305                           	opt stack 0
   306                           
   307                           ; 1 bytes @ 0x12
   308  000013                     	ds	1
   309  000014                     putch@data:
   310                           	opt stack 0
   311  000014                     isdigit@c:
   312                           	opt stack 0
   313  000014                     ___wmul@multiplicand:
   314                           	opt stack 0
   315  000014                     ___lwdiv@divisor:
   316                           	opt stack 0
   317                           
   318                           ; 2 bytes @ 0x13
   319  000014                     	ds	2
   320  000016                     ___lwdiv@counter:
   321                           	opt stack 0
   322  000016                     ___wmul@product:
   323                           	opt stack 0
   324  000016                     ___lmul@multiplicand:
   325                           	opt stack 0
   326                           
   327                           ; 4 bytes @ 0x15
   328  000016                     	ds	1
   329  000017                     ___lwdiv@quotient:
   330                           	opt stack 0
   331                           
   332                           ; 2 bytes @ 0x16
   333  000017                     	ds	2
   334  000019                     ?___lwmod:
   335                           	opt stack 0
   336  000019                     ___lwmod@dividend:
   337                           	opt stack 0
   338                           
   339                           ; 2 bytes @ 0x18
   340  000019                     	ds	1
   341  00001A                     ___lmul@product:
   342                           	opt stack 0
   343                           
   344                           ; 4 bytes @ 0x19
   345  00001A                     	ds	1
   346  00001B                     ___lwmod@divisor:
   347                           	opt stack 0
   348                           
   349                           ; 2 bytes @ 0x1A
   350  00001B                     	ds	2
   351  00001D                     ___lwmod@counter:
   352                           	opt stack 0
   353                           
   354                           ; 1 bytes @ 0x1C
   355  00001D                     	ds	1
   356  00001E                     ?_printf:
   357                           	opt stack 0
   358  00001E                     ?___lldiv:
   359                           	opt stack 0
   360  00001E                     printf@f:
   361                           	opt stack 0
   362  00001E                     ___lldiv@dividend:
   363                           	opt stack 0
   364                           
   365                           ; 4 bytes @ 0x1D
   366  00001E                     	ds	4
   367  000022                     ??_printf:
   368  000022                     ___lldiv@divisor:
   369                           	opt stack 0
   370                           
   371                           ; 4 bytes @ 0x21
   372  000022                     	ds	4
   373  000026                     printf@ap:
   374                           	opt stack 0
   375  000026                     ___lldiv@quotient:
   376                           	opt stack 0
   377                           
   378                           ; 4 bytes @ 0x25
   379  000026                     	ds	2
   380  000028                     printf@prec:
   381                           	opt stack 0
   382                           
   383                           ; 1 bytes @ 0x27
   384  000028                     	ds	1
   385  000029                     printf@flag:
   386                           	opt stack 0
   387                           
   388                           ; 1 bytes @ 0x28
   389  000029                     	ds	1
   390  00002A                     ___lldiv@counter:
   391                           	opt stack 0
   392  00002A                     printf@val:
   393                           	opt stack 0
   394                           
   395                           ; 2 bytes @ 0x29
   396  00002A                     	ds	2
   397  00002C                     printf@width:
   398                           	opt stack 0
   399                           
   400                           ; 2 bytes @ 0x2B
   401  00002C                     	ds	2
   402  00002E                     printf@c:
   403                           	opt stack 0
   404                           
   405                           ; 1 bytes @ 0x2D
   406  00002E                     	ds	1
   407  00002F                     ??_main:
   408                           
   409                           ; 1 bytes @ 0x2E
   410  00002F                     	ds	8
   411                           tblptru	equ	0xFF8
   412                           tblptrh	equ	0xFF7
   413                           tblptrl	equ	0xFF6
   414                           tablat	equ	0xFF5
   415                           postinc0	equ	0xFEE
   416                           wreg	equ	0xFE8
   417                           postdec1	equ	0xFE5
   418                           fsr1l	equ	0xFE1
   419                           
   420 ;;
   421 ;;Main: autosize = 0, tempsize = 8, incstack = 0, save=0
   422 ;;
   423 ;; *************** function _main *****************
   424 ;; Defined at:
   425 ;;		line 124 in file "main.c"
   426 ;; Parameters:    Size  Location     Type
   427 ;;		None
   428 ;; Auto vars:     Size  Location     Type
   429 ;;  speedLastMil    4   12[BANK0 ] unsigned long 
   430 ;;  lcdLastMilli    4    4[BANK0 ] unsigned long 
   431 ;;  controlLastM    4    0[BANK0 ] unsigned long 
   432 ;;  rightCountTr    2   10[BANK0 ] int 
   433 ;;  leftCountTra    2    8[BANK0 ] int 
   434 ;; Return value:  Size  Location     Type
   435 ;;                  1    wreg      void 
   436 ;; Registers used:
   437 ;;		wreg, fsr2l, fsr2h, status,2, status,0, tblptrl, tblptrh, tblptru, prodl, prodh, cstack
   438 ;; Tracked objects:
   439 ;;		On entry : 0/0
   440 ;;		On exit  : 0/0
   441 ;;		Unchanged: 0/0
   442 ;; Data sizes:     COMRAM   BANK0   BANK1   BANK2   BANK3   BANK4   BANK5   BANK6   BANK7   BANK8   BANK9  BANK10  BANK1
      +1  BANK12  BANK13  BANK14  BANK15
   443 ;;      Params:         0       0       0       0       0       0       0       0       0       0       0       0       
      +0       0       0       0       0
   444 ;;      Locals:         0      16       0       0       0       0       0       0       0       0       0       0       
      +0       0       0       0       0
   445 ;;      Temps:          8       0       0       0       0       0       0       0       0       0       0       0       
      +0       0       0       0       0
   446 ;;      Totals:         8      16       0       0       0       0       0       0       0       0       0       0       
      +0       0       0       0       0
   447 ;;Total ram usage:       24 bytes
   448 ;; Hardware stack levels required when called:    5
   449 ;; This function calls:
   450 ;;		_LCDclear
   451 ;;		_LCDinit
   452 ;;		___lldiv
   453 ;;		___lmul
   454 ;;		_configureComparators
   455 ;;		_configureTimers
   456 ;;		_printf
   457 ;; This function is called by:
   458 ;;		Startup code after reset
   459 ;; This function uses a non-reentrant model
   460 ;;
   461                           
   462                           	psect	text0
   463  001022                     __ptext0:
   464                           	opt stack 0
   465  001022                     _main:
   466                           	opt stack 26
   467                           
   468                           ;main.c: 126: OSCCONbits.IRCF = 0b100;
   469                           
   470                           ;incstack = 0
   471  001022  50D3               	movf	4051,w,c	;volatile
   472  001024  0B8F               	andlw	-113
   473  001026  0940               	iorlw	64
   474  001028  6ED3               	movwf	4051,c	;volatile
   475                           
   476                           ;main.c: 129: configureComparators();
   477  00102A  ECD4  F00B         	call	_configureComparators	;wreg free
   478                           
   479                           ;main.c: 130: configureTimers();
   480  00102E  ECB6  F00A         	call	_configureTimers	;wreg free
   481                           
   482                           ;main.c: 132: TRISBbits.TRISB4 = 1;
   483  001032  8893               	bsf	3987,4,c	;volatile
   484                           
   485                           ;main.c: 133: ANSELBbits.ANSB4 = 0;
   486  001034  010F               	movlb	15	; () banked
   487  001036  9939               	bcf	57,4,b	;volatile
   488                           
   489                           ;main.c: 137: unsigned long controlLastMillis = 0;
   490  001038  0E00               	movlw	0
   491  00103A  0100               	movlb	0	; () banked
   492  00103C  6F60               	movwf	main@controlLastMillis& (0+255),b
   493  00103E  0E00               	movlw	0
   494  001040  6F61               	movwf	(main@controlLastMillis+1)& (0+255),b
   495  001042  0E00               	movlw	0
   496  001044  6F62               	movwf	(main@controlLastMillis+2)& (0+255),b
   497  001046  0E00               	movlw	0
   498  001048  6F63               	movwf	(main@controlLastMillis+3)& (0+255),b
   499                           
   500                           ;main.c: 138: unsigned long lcdLastMillis = 0;
   501  00104A  0E00               	movlw	0
   502  00104C  0100               	movlb	0	; () banked
   503  00104E  6F64               	movwf	main@lcdLastMillis& (0+255),b
   504  001050  0E00               	movlw	0
   505  001052  6F65               	movwf	(main@lcdLastMillis+1)& (0+255),b
   506  001054  0E00               	movlw	0
   507  001056  6F66               	movwf	(main@lcdLastMillis+2)& (0+255),b
   508  001058  0E00               	movlw	0
   509  00105A  6F67               	movwf	(main@lcdLastMillis+3)& (0+255),b
   510                           
   511                           ;main.c: 139: unsigned long speedLastMillis = 0;
   512  00105C  0E00               	movlw	0
   513  00105E  0100               	movlb	0	; () banked
   514  001060  6F6C               	movwf	main@speedLastMillis& (0+255),b
   515  001062  0E00               	movlw	0
   516  001064  6F6D               	movwf	(main@speedLastMillis+1)& (0+255),b
   517  001066  0E00               	movlw	0
   518  001068  6F6E               	movwf	(main@speedLastMillis+2)& (0+255),b
   519  00106A  0E00               	movlw	0
   520  00106C  6F6F               	movwf	(main@speedLastMillis+3)& (0+255),b
   521                           
   522                           ;main.c: 140: int leftCountTracker = 0;
   523  00106E  0E00               	movlw	0
   524  001070  0100               	movlb	0	; () banked
   525  001072  6F69               	movwf	(main@leftCountTracker+1)& (0+255),b
   526  001074  0E00               	movlw	0
   527  001076  6F68               	movwf	main@leftCountTracker& (0+255),b
   528                           
   529                           ;main.c: 141: int rightCountTracker = 0;
   530  001078  0E00               	movlw	0
   531  00107A  0100               	movlb	0	; () banked
   532  00107C  6F6B               	movwf	(main@rightCountTracker+1)& (0+255),b
   533  00107E  0E00               	movlw	0
   534  001080  6F6A               	movwf	main@rightCountTracker& (0+255),b
   535                           
   536                           ; BSR set to: 0
   537                           ;main.c: 144: LCDinit();
   538  001082  EC53  F00A         	call	_LCDinit	;wreg free
   539                           
   540                           ;main.c: 145: printf("Event: %3d", event);
   541  001086  0E0B               	movlw	low STR_1
   542  001088  6E1E               	movwf	printf@f,c
   543  00108A  0E10               	movlw	high STR_1
   544  00108C  6E1F               	movwf	printf@f+1,c
   545  00108E  C045  F020         	movff	_event,?_printf+2
   546  001092  6A21               	clrf	?_printf+3,c
   547  001094  EC53  F009         	call	_printf	;wreg free
   548  001098                     l1982:
   549                           
   550                           ;main.c: 150: {
   551                           ;main.c: 155: if(lcdLastMillis + 5000 < elapsedMillis)
   552  001098  0E88               	movlw	136
   553  00109A  0100               	movlb	0	; () banked
   554  00109C  2564               	addwf	main@lcdLastMillis& (0+255),w,b
   555  00109E  6E2F               	movwf	??_main& (0+255),c
   556  0010A0  0E13               	movlw	19
   557  0010A2  0100               	movlb	0	; () banked
   558  0010A4  2165               	addwfc	(main@lcdLastMillis+1)& (0+255),w,b
   559  0010A6  6E30               	movwf	(??_main+1)& (0+255),c
   560  0010A8  0E00               	movlw	0
   561  0010AA  0100               	movlb	0	; () banked
   562  0010AC  2166               	addwfc	(main@lcdLastMillis+2)& (0+255),w,b
   563  0010AE  6E31               	movwf	(??_main+2)& (0+255),c
   564  0010B0  0E00               	movlw	0
   565  0010B2  0100               	movlb	0	; () banked
   566  0010B4  2167               	addwfc	(main@lcdLastMillis+3)& (0+255),w,b
   567  0010B6  6E32               	movwf	(??_main+3)& (0+255),c
   568  0010B8  5037               	movf	_elapsedMillis,w,c
   569  0010BA  5C2F               	subwf	??_main,w,c
   570  0010BC  5038               	movf	_elapsedMillis+1,w,c
   571  0010BE  5830               	subwfb	??_main+1,w,c
   572  0010C0  5039               	movf	_elapsedMillis+2,w,c
   573  0010C2  5831               	subwfb	??_main+2,w,c
   574  0010C4  503A               	movf	_elapsedMillis+3,w,c
   575  0010C6  5832               	subwfb	??_main+3,w,c
   576  0010C8  B0D8               	btfsc	status,0,c
   577  0010CA  D014               	goto	l1990
   578                           
   579                           ; BSR set to: 0
   580                           ;main.c: 156: {
   581                           ;main.c: 157: LCDclear();
   582  0010CC  EC25  F00C         	call	_LCDclear	;wreg free
   583                           
   584                           ;main.c: 158: printf("Speed: %d", rightWheelMeasuredSpeed);
   585  0010D0  0E16               	movlw	low STR_2
   586  0010D2  6E1E               	movwf	printf@f,c
   587  0010D4  0E10               	movlw	high STR_2
   588  0010D6  6E1F               	movwf	printf@f+1,c
   589  0010D8  C048  F020         	movff	_rightWheelMeasuredSpeed,?_printf+2
   590  0010DC  C049  F021         	movff	_rightWheelMeasuredSpeed+1,?_printf+3
   591  0010E0  EC53  F009         	call	_printf	;wreg free
   592                           
   593                           ;main.c: 159: lcdLastMillis = elapsedMillis;
   594  0010E4  C037  F064         	movff	_elapsedMillis,main@lcdLastMillis
   595  0010E8  C038  F065         	movff	_elapsedMillis+1,main@lcdLastMillis+1
   596  0010EC  C039  F066         	movff	_elapsedMillis+2,main@lcdLastMillis+2
   597  0010F0  C03A  F067         	movff	_elapsedMillis+3,main@lcdLastMillis+3
   598  0010F4                     l1990:
   599                           
   600                           ;main.c: 160: }
   601                           ;main.c: 165: {
   602                           ;main.c: 166: controlLastMillis = elapsedMillis;
   603  0010F4  C037  F060         	movff	_elapsedMillis,main@controlLastMillis
   604  0010F8  C038  F061         	movff	_elapsedMillis+1,main@controlLastMillis+1
   605  0010FC  C039  F062         	movff	_elapsedMillis+2,main@controlLastMillis+2
   606  001100  C03A  F063         	movff	_elapsedMillis+3,main@controlLastMillis+3
   607                           
   608                           ;main.c: 168: }
   609                           ;main.c: 171: if(speedLastMillis + 1000 < elapsedMillis)
   610  001104  0EE8               	movlw	232
   611  001106  0100               	movlb	0	; () banked
   612  001108  256C               	addwf	main@speedLastMillis& (0+255),w,b
   613  00110A  6E2F               	movwf	??_main& (0+255),c
   614  00110C  0E03               	movlw	3
   615  00110E  0100               	movlb	0	; () banked
   616  001110  216D               	addwfc	(main@speedLastMillis+1)& (0+255),w,b
   617  001112  6E30               	movwf	(??_main+1)& (0+255),c
   618  001114  0E00               	movlw	0
   619  001116  0100               	movlb	0	; () banked
   620  001118  216E               	addwfc	(main@speedLastMillis+2)& (0+255),w,b
   621  00111A  6E31               	movwf	(??_main+2)& (0+255),c
   622  00111C  0E00               	movlw	0
   623  00111E  0100               	movlb	0	; () banked
   624  001120  216F               	addwfc	(main@speedLastMillis+3)& (0+255),w,b
   625  001122  6E32               	movwf	(??_main+3)& (0+255),c
   626  001124  5037               	movf	_elapsedMillis,w,c
   627  001126  5C2F               	subwf	??_main,w,c
   628  001128  5038               	movf	_elapsedMillis+1,w,c
   629  00112A  5830               	subwfb	??_main+1,w,c
   630  00112C  5039               	movf	_elapsedMillis+2,w,c
   631  00112E  5831               	subwfb	??_main+2,w,c
   632  001130  503A               	movf	_elapsedMillis+3,w,c
   633  001132  5832               	subwfb	??_main+3,w,c
   634  001134  B0D8               	btfsc	status,0,c
   635  001136  D7B0               	goto	l1982
   636                           
   637                           ; BSR set to: 0
   638                           ;main.c: 172: {
   639                           ;main.c: 175: rightWheelMeasuredSpeed = (int) ((rightWheelCount - rightCountTracker) * 1
      +                          350 / (elapsedMillis - speedLastMillis));
   640  001138  C06A  F02F         	movff	main@rightCountTracker,??_main
   641  00113C  C06B  F030         	movff	main@rightCountTracker+1,??_main+1
   642  001140  0E00               	movlw	0
   643  001142  BE30               	btfsc	(??_main+1)& (0+255),7,c
   644  001144  0EFF               	movlw	255
   645  001146  6E31               	movwf	(??_main+2)& (0+255),c
   646  001148  6E32               	movwf	(??_main+3)& (0+255),c
   647  00114A  1E2F               	comf	??_main,f,c
   648  00114C  1E30               	comf	??_main+1,f,c
   649  00114E  1E31               	comf	??_main+2,f,c
   650  001150  1E32               	comf	??_main+3,f,c
   651  001152  2A2F               	incf	??_main,f,c
   652  001154  0E00               	movlw	0
   653  001156  2230               	addwfc	??_main+1,f,c
   654  001158  2231               	addwfc	??_main+2,f,c
   655  00115A  2232               	addwfc	??_main+3,f,c
   656  00115C  503F               	movf	_rightWheelCount,w,c
   657  00115E  242F               	addwf	??_main,w,c
   658  001160  6E12               	movwf	___lmul@multiplier,c
   659  001162  5040               	movf	_rightWheelCount+1,w,c
   660  001164  2030               	addwfc	??_main+1,w,c
   661  001166  6E13               	movwf	___lmul@multiplier+1,c
   662  001168  5041               	movf	_rightWheelCount+2,w,c
   663  00116A  2031               	addwfc	??_main+2,w,c
   664  00116C  6E14               	movwf	___lmul@multiplier+2,c
   665  00116E  5042               	movf	_rightWheelCount+3,w,c
   666  001170  2032               	addwfc	??_main+3,w,c
   667  001172  6E15               	movwf	___lmul@multiplier+3,c
   668  001174  0E46               	movlw	70
   669  001176  6E16               	movwf	___lmul@multiplicand,c
   670  001178  0E05               	movlw	5
   671  00117A  6E17               	movwf	___lmul@multiplicand+1,c
   672  00117C  0E00               	movlw	0
   673  00117E  6E18               	movwf	___lmul@multiplicand+2,c
   674  001180  0E00               	movlw	0
   675  001182  6E19               	movwf	___lmul@multiplicand+3,c
   676  001184  EC42  F00B         	call	___lmul	;wreg free
   677  001188  C012  F01E         	movff	?___lmul,___lldiv@dividend
   678  00118C  C013  F01F         	movff	?___lmul+1,___lldiv@dividend+1
   679  001190  C014  F020         	movff	?___lmul+2,___lldiv@dividend+2
   680  001194  C015  F021         	movff	?___lmul+3,___lldiv@dividend+3
   681  001198  C06C  F033         	movff	main@speedLastMillis,??_main+4
   682  00119C  C06D  F034         	movff	main@speedLastMillis+1,??_main+5
   683  0011A0  C06E  F035         	movff	main@speedLastMillis+2,??_main+6
   684  0011A4  C06F  F036         	movff	main@speedLastMillis+3,??_main+7
   685  0011A8  1E33               	comf	??_main+4,f,c
   686  0011AA  1E34               	comf	??_main+5,f,c
   687  0011AC  1E35               	comf	??_main+6,f,c
   688  0011AE  1E36               	comf	??_main+7,f,c
   689  0011B0  2A33               	incf	??_main+4,f,c
   690  0011B2  0E00               	movlw	0
   691  0011B4  2234               	addwfc	??_main+5,f,c
   692  0011B6  2235               	addwfc	??_main+6,f,c
   693  0011B8  2236               	addwfc	??_main+7,f,c
   694  0011BA  5037               	movf	_elapsedMillis,w,c
   695  0011BC  2433               	addwf	??_main+4,w,c
   696  0011BE  6E22               	movwf	___lldiv@divisor,c
   697  0011C0  5038               	movf	_elapsedMillis+1,w,c
   698  0011C2  2034               	addwfc	??_main+5,w,c
   699  0011C4  6E23               	movwf	___lldiv@divisor+1,c
   700  0011C6  5039               	movf	_elapsedMillis+2,w,c
   701  0011C8  2035               	addwfc	??_main+6,w,c
   702  0011CA  6E24               	movwf	___lldiv@divisor+2,c
   703  0011CC  503A               	movf	_elapsedMillis+3,w,c
   704  0011CE  2036               	addwfc	??_main+7,w,c
   705  0011D0  6E25               	movwf	___lldiv@divisor+3,c
   706  0011D2  EC01  F00B         	call	___lldiv	;wreg free
   707  0011D6  C01E  F048         	movff	?___lldiv,_rightWheelMeasuredSpeed
   708  0011DA  C01F  F049         	movff	?___lldiv+1,_rightWheelMeasuredSpeed+1
   709                           
   710                           ;main.c: 177: leftWheelMeasuredSpeed = (int) ((leftWheelCount - leftCountTracker) * 1350
      +                           / (elapsedMillis - speedLastMillis));
   711  0011DE  C068  F02F         	movff	main@leftCountTracker,??_main
   712  0011E2  C069  F030         	movff	main@leftCountTracker+1,??_main+1
   713  0011E6  0E00               	movlw	0
   714  0011E8  BE30               	btfsc	(??_main+1)& (0+255),7,c
   715  0011EA  0EFF               	movlw	255
   716  0011EC  6E31               	movwf	(??_main+2)& (0+255),c
   717  0011EE  6E32               	movwf	(??_main+3)& (0+255),c
   718  0011F0  1E2F               	comf	??_main,f,c
   719  0011F2  1E30               	comf	??_main+1,f,c
   720  0011F4  1E31               	comf	??_main+2,f,c
   721  0011F6  1E32               	comf	??_main+3,f,c
   722  0011F8  2A2F               	incf	??_main,f,c
   723  0011FA  0E00               	movlw	0
   724  0011FC  2230               	addwfc	??_main+1,f,c
   725  0011FE  2231               	addwfc	??_main+2,f,c
   726  001200  2232               	addwfc	??_main+3,f,c
   727  001202  503B               	movf	_leftWheelCount,w,c
   728  001204  242F               	addwf	??_main,w,c
   729  001206  6E12               	movwf	___lmul@multiplier,c
   730  001208  503C               	movf	_leftWheelCount+1,w,c
   731  00120A  2030               	addwfc	??_main+1,w,c
   732  00120C  6E13               	movwf	___lmul@multiplier+1,c
   733  00120E  503D               	movf	_leftWheelCount+2,w,c
   734  001210  2031               	addwfc	??_main+2,w,c
   735  001212  6E14               	movwf	___lmul@multiplier+2,c
   736  001214  503E               	movf	_leftWheelCount+3,w,c
   737  001216  2032               	addwfc	??_main+3,w,c
   738  001218  6E15               	movwf	___lmul@multiplier+3,c
   739  00121A  0E46               	movlw	70
   740  00121C  6E16               	movwf	___lmul@multiplicand,c
   741  00121E  0E05               	movlw	5
   742  001220  6E17               	movwf	___lmul@multiplicand+1,c
   743  001222  0E00               	movlw	0
   744  001224  6E18               	movwf	___lmul@multiplicand+2,c
   745  001226  0E00               	movlw	0
   746  001228  6E19               	movwf	___lmul@multiplicand+3,c
   747  00122A  EC42  F00B         	call	___lmul	;wreg free
   748  00122E  C012  F01E         	movff	?___lmul,___lldiv@dividend
   749  001232  C013  F01F         	movff	?___lmul+1,___lldiv@dividend+1
   750  001236  C014  F020         	movff	?___lmul+2,___lldiv@dividend+2
   751  00123A  C015  F021         	movff	?___lmul+3,___lldiv@dividend+3
   752  00123E  C06C  F033         	movff	main@speedLastMillis,??_main+4
   753  001242  C06D  F034         	movff	main@speedLastMillis+1,??_main+5
   754  001246  C06E  F035         	movff	main@speedLastMillis+2,??_main+6
   755  00124A  C06F  F036         	movff	main@speedLastMillis+3,??_main+7
   756  00124E  1E33               	comf	??_main+4,f,c
   757  001250  1E34               	comf	??_main+5,f,c
   758  001252  1E35               	comf	??_main+6,f,c
   759  001254  1E36               	comf	??_main+7,f,c
   760  001256  2A33               	incf	??_main+4,f,c
   761  001258  0E00               	movlw	0
   762  00125A  2234               	addwfc	??_main+5,f,c
   763  00125C  2235               	addwfc	??_main+6,f,c
   764  00125E  2236               	addwfc	??_main+7,f,c
   765  001260  5037               	movf	_elapsedMillis,w,c
   766  001262  2433               	addwf	??_main+4,w,c
   767  001264  6E22               	movwf	___lldiv@divisor,c
   768  001266  5038               	movf	_elapsedMillis+1,w,c
   769  001268  2034               	addwfc	??_main+5,w,c
   770  00126A  6E23               	movwf	___lldiv@divisor+1,c
   771  00126C  5039               	movf	_elapsedMillis+2,w,c
   772  00126E  2035               	addwfc	??_main+6,w,c
   773  001270  6E24               	movwf	___lldiv@divisor+2,c
   774  001272  503A               	movf	_elapsedMillis+3,w,c
   775  001274  2036               	addwfc	??_main+7,w,c
   776  001276  6E25               	movwf	___lldiv@divisor+3,c
   777  001278  EC01  F00B         	call	___lldiv	;wreg free
   778  00127C  C01E  F046         	movff	?___lldiv,_leftWheelMeasuredSpeed
   779  001280  C01F  F047         	movff	?___lldiv+1,_leftWheelMeasuredSpeed+1
   780                           
   781                           ;main.c: 179: speedLastMillis = elapsedMillis;
   782  001284  C037  F06C         	movff	_elapsedMillis,main@speedLastMillis
   783  001288  C038  F06D         	movff	_elapsedMillis+1,main@speedLastMillis+1
   784  00128C  C039  F06E         	movff	_elapsedMillis+2,main@speedLastMillis+2
   785  001290  C03A  F06F         	movff	_elapsedMillis+3,main@speedLastMillis+3
   786                           
   787                           ;main.c: 181: rightCountTracker = rightWheelCount;
   788  001294  C03F  F06A         	movff	_rightWheelCount,main@rightCountTracker
   789  001298  C040  F06B         	movff	_rightWheelCount+1,main@rightCountTracker+1
   790                           
   791                           ;main.c: 183: leftCountTracker = leftWheelCount;
   792  00129C  C03B  F068         	movff	_leftWheelCount,main@leftCountTracker
   793  0012A0  C03C  F069         	movff	_leftWheelCount+1,main@leftCountTracker+1
   794  0012A4  D6F9               	goto	l1982
   795  0012A6                     __end_of_main:
   796                           	opt stack 0
   797                           tblptru	equ	0xFF8
   798                           tblptrh	equ	0xFF7
   799                           tblptrl	equ	0xFF6
   800                           tablat	equ	0xFF5
   801                           postinc0	equ	0xFEE
   802                           wreg	equ	0xFE8
   803                           postdec1	equ	0xFE5
   804                           fsr1l	equ	0xFE1
   805                           status	equ	0xFD8
   806                           
   807 ;; *************** function _printf *****************
   808 ;; Defined at:
   809 ;;		line 464 in file "/Applications/microchip/xc8/v1.36/sources/common/doprnt.c"
   810 ;; Parameters:    Size  Location     Type
   811 ;;  f               2   29[COMRAM] PTR const unsigned char 
   812 ;;		 -> STR_2(10), STR_1(11), 
   813 ;; Auto vars:     Size  Location     Type
   814 ;;  tmpval          4    0        struct .
   815 ;;  cp              3    0        PTR const unsigned char 
   816 ;;  width           2   43[COMRAM] int 
   817 ;;  val             2   41[COMRAM] unsigned int 
   818 ;;  ap              2   37[COMRAM] PTR void [1]
   819 ;;		 -> ?_printf(2), 
   820 ;;  len             2    0        unsigned int 
   821 ;;  c               1   45[COMRAM] char 
   822 ;;  flag            1   40[COMRAM] unsigned char 
   823 ;;  prec            1   39[COMRAM] char 
   824 ;; Return value:  Size  Location     Type
   825 ;;                  2   29[COMRAM] int 
   826 ;; Registers used:
   827 ;;		wreg, fsr2l, fsr2h, status,2, status,0, tblptrl, tblptrh, tblptru, prodl, prodh, cstack
   828 ;; Tracked objects:
   829 ;;		On entry : 0/0
   830 ;;		On exit  : 0/0
   831 ;;		Unchanged: 0/0
   832 ;; Data sizes:     COMRAM   BANK0   BANK1   BANK2   BANK3   BANK4   BANK5   BANK6   BANK7   BANK8   BANK9  BANK10  BANK1
      +1  BANK12  BANK13  BANK14  BANK15
   833 ;;      Params:         4       0       0       0       0       0       0       0       0       0       0       0       
      +0       0       0       0       0
   834 ;;      Locals:         9       0       0       0       0       0       0       0       0       0       0       0       
      +0       0       0       0       0
   835 ;;      Temps:          4       0       0       0       0       0       0       0       0       0       0       0       
      +0       0       0       0       0
   836 ;;      Totals:        17       0       0       0       0       0       0       0       0       0       0       0       
      +0       0       0       0       0
   837 ;;Total ram usage:       17 bytes
   838 ;; Hardware stack levels used:    1
   839 ;; Hardware stack levels required when called:    4
   840 ;; This function calls:
   841 ;;		___lwdiv
   842 ;;		___lwmod
   843 ;;		___wmul
   844 ;;		_isdigit
   845 ;;		_putch
   846 ;; This function is called by:
   847 ;;		_main
   848 ;; This function uses a non-reentrant model
   849 ;;
   850                           
   851                           	psect	text1
   852  0012A6                     __ptext1:
   853                           	opt stack 0
   854  0012A6                     _printf:
   855                           	opt stack 26
   856                           
   857                           ;doprnt.c: 466: va_list ap;
   858                           ;doprnt.c: 499: signed char c;
   859                           ;doprnt.c: 501: int width;
   860                           ;doprnt.c: 506: signed char prec;
   861                           ;doprnt.c: 508: unsigned char flag;
   862                           ;doprnt.c: 523: union {
   863                           ;doprnt.c: 524: unsigned long vd;
   864                           ;doprnt.c: 525: double integ;
   865                           ;doprnt.c: 526: } tmpval;
   866                           ;doprnt.c: 528: unsigned int val;
   867                           ;doprnt.c: 529: unsigned len;
   868                           ;doprnt.c: 530: const char * cp;
   869                           ;doprnt.c: 533: *ap = __va_start();
   870                           
   871                           ;incstack = 0
   872  0012A6  0E20               	movlw	low (?_printf+2)
   873  0012A8  6E26               	movwf	printf@ap,c
   874  0012AA  0E00               	movlw	high (?_printf+2)
   875  0012AC  6E27               	movwf	printf@ap+1,c
   876                           
   877                           ;doprnt.c: 536: while(c = *f++) {
   878  0012AE  D0EE               	goto	l1916
   879  0012B0                     l1840:
   880                           
   881                           ;doprnt.c: 538: if(c != '%')
   882  0012B0  0E25               	movlw	37
   883  0012B2  182E               	xorwf	printf@c,w,c
   884  0012B4  B4D8               	btfsc	status,2,c
   885  0012B6  D004               	goto	l1844
   886                           
   887                           ;doprnt.c: 540: {
   888                           ;doprnt.c: 541: (putch(c) );
   889  0012B8  502E               	movf	printf@c,w,c
   890  0012BA  EC33  F00C         	call	_putch
   891                           
   892                           ;doprnt.c: 542: continue;
   893  0012BE  D0E6               	goto	l1916
   894  0012C0                     l1844:
   895                           
   896                           ;doprnt.c: 543: }
   897                           ;doprnt.c: 546: width = 0;
   898  0012C0  0E00               	movlw	0
   899  0012C2  6E2D               	movwf	printf@width+1,c
   900  0012C4  0E00               	movlw	0
   901  0012C6  6E2C               	movwf	printf@width,c
   902                           
   903                           ;doprnt.c: 548: flag = 0;
   904  0012C8  0E00               	movlw	0
   905  0012CA  6E29               	movwf	printf@flag,c
   906                           
   907                           ;doprnt.c: 597: if(isdigit((unsigned)*f)) {
   908  0012CC  C01E  FFF6         	movff	printf@f,tblptrl
   909  0012D0  C01F  FFF7         	movff	printf@f+1,tblptrh
   910  0012D4                     	if	0	;tblptru may be non-zero
   911  0012D4                     	endif
   912  0012D4                     	if	0	;tblptru may be non-zero
   913  0012D4                     	endif
   914  0012D4  0008               	tblrd		*
   915  0012D6  50F5               	movf	tablat,w,c
   916  0012D8  EC03  F00C         	call	_isdigit
   917  0012DC  A0D8               	btfss	status,0,c
   918  0012DE  D032               	goto	l1860
   919                           
   920                           ;doprnt.c: 598: width = 0;
   921  0012E0  0E00               	movlw	0
   922  0012E2  6E2D               	movwf	printf@width+1,c
   923  0012E4  0E00               	movlw	0
   924  0012E6  6E2C               	movwf	printf@width,c
   925  0012E8                     l1850:
   926                           
   927                           ;doprnt.c: 600: width *= 10;
   928  0012E8  C02C  F012         	movff	printf@width,___wmul@multiplier
   929  0012EC  C02D  F013         	movff	printf@width+1,___wmul@multiplier+1
   930  0012F0  0E00               	movlw	0
   931  0012F2  6E15               	movwf	___wmul@multiplicand+1,c
   932  0012F4  0E0A               	movlw	10
   933  0012F6  6E14               	movwf	___wmul@multiplicand,c
   934  0012F8  ECF0  F00B         	call	___wmul	;wreg free
   935  0012FC  C012  F02C         	movff	?___wmul,printf@width
   936  001300  C013  F02D         	movff	?___wmul+1,printf@width+1
   937                           
   938                           ;doprnt.c: 601: width += *f++ - '0';
   939  001304  0ED0               	movlw	208
   940  001306  6E22               	movwf	??_printf& (0+255),c
   941  001308  0EFF               	movlw	255
   942  00130A  6E23               	movwf	(??_printf+1)& (0+255),c
   943  00130C  C01E  FFF6         	movff	printf@f,tblptrl
   944  001310  C01F  FFF7         	movff	printf@f+1,tblptrh
   945  001314                     	if	0	;tblptru may be non-zero
   946  001314                     	endif
   947  001314                     	if	0	;tblptru may be non-zero
   948  001314                     	endif
   949  001314  0008               	tblrd		*
   950  001316  50F5               	movf	tablat,w,c
   951  001318  6E24               	movwf	(??_printf+2)& (0+255),c
   952  00131A  6A25               	clrf	(??_printf+3)& (0+255),c
   953  00131C  5022               	movf	??_printf,w,c
   954  00131E  2624               	addwf	??_printf+2,f,c
   955  001320  5023               	movf	??_printf+1,w,c
   956  001322  2225               	addwfc	??_printf+3,f,c
   957  001324  5024               	movf	??_printf+2,w,c
   958  001326  262C               	addwf	printf@width,f,c
   959  001328  5025               	movf	??_printf+3,w,c
   960  00132A  222D               	addwfc	printf@width+1,f,c
   961  00132C  4A1E               	infsnz	printf@f,f,c
   962  00132E  2A1F               	incf	printf@f+1,f,c
   963                           
   964                           ;doprnt.c: 602: } while(isdigit((unsigned)*f));
   965  001330  C01E  FFF6         	movff	printf@f,tblptrl
   966  001334  C01F  FFF7         	movff	printf@f+1,tblptrh
   967  001338                     	if	0	;tblptru may be non-zero
   968  001338                     	endif
   969  001338                     	if	0	;tblptru may be non-zero
   970  001338                     	endif
   971  001338  0008               	tblrd		*
   972  00133A  50F5               	movf	tablat,w,c
   973  00133C  EC03  F00C         	call	_isdigit
   974  001340  B0D8               	btfsc	status,0,c
   975  001342  D7D2               	goto	l1850
   976  001344                     l1860:
   977  001344  C01E  FFF6         	movff	printf@f,tblptrl
   978  001348  C01F  FFF7         	movff	printf@f+1,tblptrh
   979  00134C  4A1E               	infsnz	printf@f,f,c
   980  00134E  2A1F               	incf	printf@f+1,f,c
   981  001350                     	if	0	;tblptru may be non-zero
   982  001350                     	endif
   983  001350                     	if	0	;tblptru may be non-zero
   984  001350                     	endif
   985  001350  0008               	tblrd		*
   986  001352  CFF5 F02E          	movff	tablat,printf@c
   987  001356  502E               	movf	printf@c,w,c
   988                           
   989                           ; Switch size 1, requested type "space"
   990                           ; Number of cases is 3, Range of values is 0 to 105
   991                           ; switch strategies available:
   992                           ; Name         Instructions Cycles
   993                           ; simple_byte           10     6 (average)
   994                           ;	Chosen strategy is simple_byte
   995  001358  0A00               	xorlw	0	; case 0
   996  00135A  B4D8               	btfsc	status,2,c
   997  00135C  0012               	return	
   998  00135E  0A64               	xorlw	100	; case 100
   999  001360  B4D8               	btfsc	status,2,c
  1000  001362  D003               	goto	l1862
  1001  001364  0A0D               	xorlw	13	; case 105
  1002  001366  A4D8               	btfss	status,2,c
  1003  001368  D091               	goto	l1916
  1004  00136A                     l1862:
  1005                           
  1006                           ;doprnt.c: 1253: {
  1007                           ;doprnt.c: 1259: val = (int)(*(int *)__va_arg((*(int **)ap), (int)0));
  1008  00136A  C026  FFD9         	movff	printf@ap,fsr2l
  1009  00136E  C027  FFDA         	movff	printf@ap+1,fsr2h
  1010  001372  CFDE F02A          	movff	postinc2,printf@val
  1011  001376  CFDD F02B          	movff	postdec2,printf@val+1
  1012  00137A  0E02               	movlw	2
  1013  00137C  2626               	addwf	printf@ap,f,c
  1014  00137E  0E00               	movlw	0
  1015  001380  2227               	addwfc	printf@ap+1,f,c
  1016                           
  1017                           ;doprnt.c: 1261: if((int)val < 0) {
  1018  001382  AE2B               	btfss	printf@val+1,7,c
  1019  001384  D006               	goto	l1872
  1020                           
  1021                           ;doprnt.c: 1262: flag |= 0x03;
  1022  001386  0E03               	movlw	3
  1023  001388  1229               	iorwf	printf@flag,f,c
  1024                           
  1025                           ;doprnt.c: 1263: val = -val;
  1026  00138A  6C2A               	negf	printf@val,c
  1027  00138C  1E2B               	comf	printf@val+1,f,c
  1028  00138E  B0D8               	btfsc	status,0,c
  1029  001390  2A2B               	incf	printf@val+1,f,c
  1030  001392                     l1872:
  1031                           
  1032                           ;doprnt.c: 1264: }
  1033                           ;doprnt.c: 1266: }
  1034                           ;doprnt.c: 1305: for(c = 1 ; c != sizeof dpowers/sizeof dpowers[0] ; c++)
  1035  001392  0E01               	movlw	1
  1036  001394  6E2E               	movwf	printf@c,c
  1037  001396                     l1874:
  1038  001396  0E05               	movlw	5
  1039  001398  182E               	xorwf	printf@c,w,c
  1040  00139A  B4D8               	btfsc	status,2,c
  1041  00139C  D012               	goto	l1886
  1042                           
  1043                           ;doprnt.c: 1306: if(val < dpowers[c])
  1044  00139E  502E               	movf	printf@c,w,c
  1045  0013A0  0D02               	mullw	2
  1046  0013A2  0E01               	movlw	low _dpowers
  1047  0013A4  24F3               	addwf	prodl,w,c
  1048  0013A6  6EF6               	movwf	tblptrl,c
  1049  0013A8  0E10               	movlw	high _dpowers
  1050  0013AA  20F4               	addwfc	prodh,w,c
  1051  0013AC  6EF7               	movwf	tblptrh,c
  1052  0013AE                     	if	0	;There are less than 3 active tblptr bytes
  1053  0013AE                     	endif
  1054  0013AE  0009               	tblrd		*+
  1055  0013B0  50F5               	movf	tablat,w,c
  1056  0013B2  5C2A               	subwf	printf@val,w,c
  1057  0013B4  0009               	tblrd		*+
  1058  0013B6  50F5               	movf	tablat,w,c
  1059  0013B8  582B               	subwfb	printf@val+1,w,c
  1060  0013BA  A0D8               	btfss	status,0,c
  1061  0013BC  D002               	goto	l1886
  1062                           
  1063                           ;doprnt.c: 1307: break;
  1064  0013BE  2A2E               	incf	printf@c,f,c
  1065  0013C0  D7EA               	goto	l1874
  1066  0013C2                     l1886:
  1067                           
  1068                           ;doprnt.c: 1345: if(width && flag & 0x03)
  1069  0013C2  502C               	movf	printf@width,w,c
  1070  0013C4  102D               	iorwf	printf@width+1,w,c
  1071  0013C6  B4D8               	btfsc	status,2,c
  1072  0013C8  D009               	goto	l1892
  1073  0013CA  C029  F022         	movff	printf@flag,??_printf
  1074  0013CE  0E03               	movlw	3
  1075  0013D0  1622               	andwf	??_printf,f,c
  1076  0013D2  B4D8               	btfsc	status,2,c
  1077  0013D4  D003               	goto	l1892
  1078                           
  1079                           ;doprnt.c: 1346: width--;
  1080  0013D6  062C               	decf	printf@width,f,c
  1081  0013D8  A0D8               	btfss	status,0,c
  1082  0013DA  062D               	decf	printf@width+1,f,c
  1083  0013DC                     l1892:
  1084                           
  1085                           ;doprnt.c: 1381: if(width > c)
  1086  0013DC  0E80               	movlw	128
  1087  0013DE  BE2E               	btfsc	printf@c,7,c
  1088  0013E0  0E7F               	movlw	127
  1089  0013E2  6E22               	movwf	??_printf& (0+255),c
  1090  0013E4  502C               	movf	printf@width,w,c
  1091  0013E6  5C2E               	subwf	printf@c,w,c
  1092  0013E8  502D               	movf	printf@width+1,w,c
  1093  0013EA  0A80               	xorlw	128
  1094  0013EC  5822               	subwfb	??_printf& (0+255),w,c
  1095  0013EE  B0D8               	btfsc	status,0,c
  1096  0013F0  D007               	goto	l1896
  1097                           
  1098                           ;doprnt.c: 1382: width -= c;
  1099  0013F2  502E               	movf	printf@c,w,c
  1100  0013F4  5E2C               	subwf	printf@width,f,c
  1101  0013F6  0E00               	movlw	0
  1102  0013F8  BE2E               	btfsc	printf@c,7,c
  1103  0013FA  0EFF               	movlw	255
  1104  0013FC  5A2D               	subwfb	printf@width+1,f,c
  1105  0013FE  D004               	goto	l1898
  1106  001400                     l1896:
  1107                           
  1108                           ;doprnt.c: 1383: else
  1109                           ;doprnt.c: 1384: width = 0;
  1110  001400  0E00               	movlw	0
  1111  001402  6E2D               	movwf	printf@width+1,c
  1112  001404  0E00               	movlw	0
  1113  001406  6E2C               	movwf	printf@width,c
  1114  001408                     l1898:
  1115                           
  1116                           ;doprnt.c: 1422: {
  1117                           ;doprnt.c: 1424: if(width
  1118                           ;doprnt.c: 1428: )
  1119  001408  502C               	movf	printf@width,w,c
  1120  00140A  102D               	iorwf	printf@width+1,w,c
  1121  00140C  B4D8               	btfsc	status,2,c
  1122  00140E  D00A               	goto	l1904
  1123  001410                     l1900:
  1124                           
  1125                           ;doprnt.c: 1430: (putch(' ') );
  1126  001410  0E20               	movlw	32
  1127  001412  EC33  F00C         	call	_putch
  1128                           
  1129                           ;doprnt.c: 1431: while(--width);
  1130  001416  062C               	decf	printf@width,f,c
  1131  001418  A0D8               	btfss	status,0,c
  1132  00141A  062D               	decf	printf@width+1,f,c
  1133  00141C  502C               	movf	printf@width,w,c
  1134  00141E  102D               	iorwf	printf@width+1,w,c
  1135  001420  A4D8               	btfss	status,2,c
  1136  001422  D7F6               	goto	l1900
  1137  001424                     l1904:
  1138                           
  1139                           ;doprnt.c: 1438: if(flag & 0x03)
  1140  001424  C029  F022         	movff	printf@flag,??_printf
  1141  001428  0E03               	movlw	3
  1142  00142A  1622               	andwf	??_printf,f,c
  1143  00142C  B4D8               	btfsc	status,2,c
  1144  00142E  D003               	goto	l1908
  1145                           
  1146                           ;doprnt.c: 1439: (putch('-') );
  1147  001430  0E2D               	movlw	45
  1148  001432  EC33  F00C         	call	_putch
  1149  001436                     l1908:
  1150                           
  1151                           ;doprnt.c: 1469: }
  1152                           ;doprnt.c: 1472: prec = c;
  1153  001436  C02E  F028         	movff	printf@c,printf@prec
  1154                           
  1155                           ;doprnt.c: 1474: while(prec--) {
  1156  00143A  D024               	goto	l1914
  1157  00143C                     l1910:
  1158                           
  1159                           ;doprnt.c: 1478: {
  1160                           ;doprnt.c: 1489: c = (val / dpowers[prec]) % 10 + '0';
  1161  00143C  5028               	movf	printf@prec,w,c
  1162  00143E  0D02               	mullw	2
  1163  001440  0E01               	movlw	low _dpowers
  1164  001442  24F3               	addwf	prodl,w,c
  1165  001444  6EF6               	movwf	tblptrl,c
  1166  001446  0E10               	movlw	high _dpowers
  1167  001448  20F4               	addwfc	prodh,w,c
  1168  00144A  6EF7               	movwf	tblptrh,c
  1169  00144C                     	if	0	;There are less than 3 active tblptr bytes
  1170  00144C                     	endif
  1171  00144C  0009               	tblrd		*+
  1172  00144E  CFF5 F014          	movff	tablat,___lwdiv@divisor
  1173  001452  000A               	tblrd		*-
  1174  001454  CFF5 F015          	movff	tablat,___lwdiv@divisor+1
  1175  001458  C02A  F012         	movff	printf@val,___lwdiv@dividend
  1176  00145C  C02B  F013         	movff	printf@val+1,___lwdiv@dividend+1
  1177  001460  EC6D  F00B         	call	___lwdiv	;wreg free
  1178  001464  C012  F019         	movff	?___lwdiv,___lwmod@dividend
  1179  001468  C013  F01A         	movff	?___lwdiv+1,___lwmod@dividend+1
  1180  00146C  0E00               	movlw	0
  1181  00146E  6E1C               	movwf	___lwmod@divisor+1,c
  1182  001470  0E0A               	movlw	10
  1183  001472  6E1B               	movwf	___lwmod@divisor,c
  1184  001474  EC96  F00B         	call	___lwmod	;wreg free
  1185  001478  5019               	movf	?___lwmod,w,c
  1186  00147A  0F30               	addlw	48
  1187  00147C  6E2E               	movwf	printf@c,c
  1188                           
  1189                           ;doprnt.c: 1523: }
  1190                           ;doprnt.c: 1524: (putch(c) );
  1191  00147E  502E               	movf	printf@c,w,c
  1192  001480  EC33  F00C         	call	_putch
  1193  001484                     l1914:
  1194  001484  0628               	decf	printf@prec,f,c
  1195  001486  2828               	incf	printf@prec,w,c
  1196  001488  A4D8               	btfss	status,2,c
  1197  00148A  D7D8               	goto	l1910
  1198  00148C                     l1916:
  1199  00148C  C01E  FFF6         	movff	printf@f,tblptrl
  1200  001490  C01F  FFF7         	movff	printf@f+1,tblptrh
  1201  001494  4A1E               	infsnz	printf@f,f,c
  1202  001496  2A1F               	incf	printf@f+1,f,c
  1203  001498                     	if	0	;tblptru may be non-zero
  1204  001498                     	endif
  1205  001498                     	if	0	;tblptru may be non-zero
  1206  001498                     	endif
  1207  001498  0008               	tblrd		*
  1208  00149A  CFF5 F02E          	movff	tablat,printf@c
  1209  00149E  502E               	movf	printf@c,w,c
  1210  0014A0  B4D8               	btfsc	status,2,c
  1211  0014A2  0012               	return	
  1212  0014A4  D705               	goto	l1840
  1213  0014A6                     __end_of_printf:
  1214                           	opt stack 0
  1215                           tblptru	equ	0xFF8
  1216                           tblptrh	equ	0xFF7
  1217                           tblptrl	equ	0xFF6
  1218                           tablat	equ	0xFF5
  1219                           prodh	equ	0xFF4
  1220                           prodl	equ	0xFF3
  1221                           postinc0	equ	0xFEE
  1222                           wreg	equ	0xFE8
  1223                           postdec1	equ	0xFE5
  1224                           fsr1l	equ	0xFE1
  1225                           postinc2	equ	0xFDE
  1226                           postdec2	equ	0xFDD
  1227                           fsr2h	equ	0xFDA
  1228                           fsr2l	equ	0xFD9
  1229                           status	equ	0xFD8
  1230                           
  1231 ;; *************** function _putch *****************
  1232 ;; Defined at:
  1233 ;;		line 12 in file "printfLib.c"
  1234 ;; Parameters:    Size  Location     Type
  1235 ;;  data            1    wreg     unsigned char 
  1236 ;; Auto vars:     Size  Location     Type
  1237 ;;  data            1   19[COMRAM] unsigned char 
  1238 ;; Return value:  Size  Location     Type
  1239 ;;                  1    wreg      void 
  1240 ;; Registers used:
  1241 ;;		wreg, status,2, cstack
  1242 ;; Tracked objects:
  1243 ;;		On entry : 0/0
  1244 ;;		On exit  : 0/0
  1245 ;;		Unchanged: 0/0
  1246 ;; Data sizes:     COMRAM   BANK0   BANK1   BANK2   BANK3   BANK4   BANK5   BANK6   BANK7   BANK8   BANK9  BANK10  BANK1
      +1  BANK12  BANK13  BANK14  BANK15
  1247 ;;      Params:         0       0       0       0       0       0       0       0       0       0       0       0       
      +0       0       0       0       0
  1248 ;;      Locals:         1       0       0       0       0       0       0       0       0       0       0       0       
      +0       0       0       0       0
  1249 ;;      Temps:          0       0       0       0       0       0       0       0       0       0       0       0       
      +0       0       0       0       0
  1250 ;;      Totals:         1       0       0       0       0       0       0       0       0       0       0       0       
      +0       0       0       0       0
  1251 ;;Total ram usage:        1 bytes
  1252 ;; Hardware stack levels used:    1
  1253 ;; Hardware stack levels required when called:    3
  1254 ;; This function calls:
  1255 ;;		_LCDwrite
  1256 ;; This function is called by:
  1257 ;;		_printf
  1258 ;; This function uses a non-reentrant model
  1259 ;;
  1260                           
  1261                           	psect	text2
  1262  001866                     __ptext2:
  1263                           	opt stack 0
  1264  001866                     _putch:
  1265                           	opt stack 26
  1266                           
  1267                           ;incstack = 0
  1268                           ;putch@data stored from wreg
  1269  001866  6E14               	movwf	putch@data,c
  1270                           
  1271                           ;printfLib.c: 13: LCDwrite(data);
  1272  001868  5014               	movf	putch@data,w,c
  1273  00186A  EC1C  F00C         	call	_LCDwrite
  1274  00186E  0012               	return		;funcret
  1275  001870                     __end_of_putch:
  1276                           	opt stack 0
  1277                           tblptru	equ	0xFF8
  1278                           tblptrh	equ	0xFF7
  1279                           tblptrl	equ	0xFF6
  1280                           tablat	equ	0xFF5
  1281                           prodh	equ	0xFF4
  1282                           prodl	equ	0xFF3
  1283                           postinc0	equ	0xFEE
  1284                           wreg	equ	0xFE8
  1285                           postdec1	equ	0xFE5
  1286                           fsr1l	equ	0xFE1
  1287                           postinc2	equ	0xFDE
  1288                           postdec2	equ	0xFDD
  1289                           fsr2h	equ	0xFDA
  1290                           fsr2l	equ	0xFD9
  1291                           status	equ	0xFD8
  1292                           
  1293 ;; *************** function _LCDwrite *****************
  1294 ;; Defined at:
  1295 ;;		line 118 in file "lcd.c"
  1296 ;; Parameters:    Size  Location     Type
  1297 ;;  input           1    wreg     unsigned char 
  1298 ;; Auto vars:     Size  Location     Type
  1299 ;;  input           1   18[COMRAM] unsigned char 
  1300 ;; Return value:  Size  Location     Type
  1301 ;;                  1    wreg      void 
  1302 ;; Registers used:
  1303 ;;		wreg, status,2, cstack
  1304 ;; Tracked objects:
  1305 ;;		On entry : 0/0
  1306 ;;		On exit  : 0/0
  1307 ;;		Unchanged: 0/0
  1308 ;; Data sizes:     COMRAM   BANK0   BANK1   BANK2   BANK3   BANK4   BANK5   BANK6   BANK7   BANK8   BANK9  BANK10  BANK1
      +1  BANK12  BANK13  BANK14  BANK15
  1309 ;;      Params:         0       0       0       0       0       0       0       0       0       0       0       0       
      +0       0       0       0       0
  1310 ;;      Locals:         1       0       0       0       0       0       0       0       0       0       0       0       
      +0       0       0       0       0
  1311 ;;      Temps:          0       0       0       0       0       0       0       0       0       0       0       0       
      +0       0       0       0       0
  1312 ;;      Totals:         1       0       0       0       0       0       0       0       0       0       0       0       
      +0       0       0       0       0
  1313 ;;Total ram usage:        1 bytes
  1314 ;; Hardware stack levels used:    1
  1315 ;; Hardware stack levels required when called:    2
  1316 ;; This function calls:
  1317 ;;		_LCDcheckBF
  1318 ;;		_LCDcmd
  1319 ;; This function is called by:
  1320 ;;		_putch
  1321 ;;		_LCDputs
  1322 ;;		_LCDwriteLineOne
  1323 ;;		_LCDwriteLineTwo
  1324 ;; This function uses a non-reentrant model
  1325 ;;
  1326                           
  1327                           	psect	text3
  1328  001838                     __ptext3:
  1329                           	opt stack 0
  1330  001838                     _LCDwrite:
  1331                           	opt stack 26
  1332                           
  1333                           ;incstack = 0
  1334                           ;LCDwrite@input stored from wreg
  1335  001838  6E13               	movwf	LCDwrite@input,c
  1336                           
  1337                           ;lcd.c: 120: LATEbits.LATE0 = 1;
  1338  00183A  808D               	bsf	3981,0,c	;volatile
  1339                           
  1340                           ;lcd.c: 121: LATEbits.LATE1 = 0;
  1341  00183C  928D               	bcf	3981,1,c	;volatile
  1342                           
  1343                           ;lcd.c: 122: LCDcmd(input);
  1344  00183E  5013               	movf	LCDwrite@input,w,c
  1345  001840  EC2D  F00C         	call	_LCDcmd
  1346                           
  1347                           ;lcd.c: 123: LCDcheckBF();
  1348  001844  EC12  F00C         	call	_LCDcheckBF	;wreg free
  1349  001848  0012               	return		;funcret
  1350  00184A                     __end_of_LCDwrite:
  1351                           	opt stack 0
  1352                           tblptru	equ	0xFF8
  1353                           tblptrh	equ	0xFF7
  1354                           tblptrl	equ	0xFF6
  1355                           tablat	equ	0xFF5
  1356                           prodh	equ	0xFF4
  1357                           prodl	equ	0xFF3
  1358                           postinc0	equ	0xFEE
  1359                           wreg	equ	0xFE8
  1360                           postdec1	equ	0xFE5
  1361                           fsr1l	equ	0xFE1
  1362                           postinc2	equ	0xFDE
  1363                           postdec2	equ	0xFDD
  1364                           fsr2h	equ	0xFDA
  1365                           fsr2l	equ	0xFD9
  1366                           status	equ	0xFD8
  1367                           
  1368 ;; *************** function _isdigit *****************
  1369 ;; Defined at:
  1370 ;;		line 8 in file "/Applications/microchip/xc8/v1.36/sources/common/isdigit.c"
  1371 ;; Parameters:    Size  Location     Type
  1372 ;;  c               1    wreg     unsigned char 
  1373 ;; Auto vars:     Size  Location     Type
  1374 ;;  c               1   19[COMRAM] unsigned char 
  1375 ;; Return value:  Size  Location     Type
  1376 ;;		None               void
  1377 ;; Registers used:
  1378 ;;		wreg, status,2, status,0
  1379 ;; Tracked objects:
  1380 ;;		On entry : 0/0
  1381 ;;		On exit  : 0/0
  1382 ;;		Unchanged: 0/0
  1383 ;; Data sizes:     COMRAM   BANK0   BANK1   BANK2   BANK3   BANK4   BANK5   BANK6   BANK7   BANK8   BANK9  BANK10  BANK1
      +1  BANK12  BANK13  BANK14  BANK15
  1384 ;;      Params:         0       0       0       0       0       0       0       0       0       0       0       0       
      +0       0       0       0       0
  1385 ;;      Locals:         2       0       0       0       0       0       0       0       0       0       0       0       
      +0       0       0       0       0
  1386 ;;      Temps:          1       0       0       0       0       0       0       0       0       0       0       0       
      +0       0       0       0       0
  1387 ;;      Totals:         3       0       0       0       0       0       0       0       0       0       0       0       
      +0       0       0       0       0
  1388 ;;Total ram usage:        3 bytes
  1389 ;; Hardware stack levels used:    1
  1390 ;; Hardware stack levels required when called:    1
  1391 ;; This function calls:
  1392 ;;		Nothing
  1393 ;; This function is called by:
  1394 ;;		_printf
  1395 ;; This function uses a non-reentrant model
  1396 ;;
  1397                           
  1398                           	psect	text4
  1399  001806                     __ptext4:
  1400                           	opt stack 0
  1401  001806                     _isdigit:
  1402                           	opt stack 28
  1403                           
  1404                           ;incstack = 0
  1405                           ;isdigit@c stored from wreg
  1406  001806  6E14               	movwf	isdigit@c,c
  1407  001808  0E00               	movlw	0
  1408  00180A  6E13               	movwf	_isdigit$1662,c
  1409  00180C  0E3A               	movlw	58
  1410  00180E  6014               	cpfslt	isdigit@c,c
  1411  001810  D005               	goto	l1682
  1412  001812  0E2F               	movlw	47
  1413  001814  6414               	cpfsgt	isdigit@c,c
  1414  001816  D002               	goto	l1682
  1415  001818  0E01               	movlw	1
  1416  00181A  6E13               	movwf	_isdigit$1662,c
  1417  00181C                     l1682:
  1418  00181C  C013  F012         	movff	_isdigit$1662,??_isdigit
  1419  001820  3012               	rrcf	??_isdigit,w,c
  1420  001822  0012               	return	
  1421  001824                     __end_of_isdigit:
  1422                           	opt stack 0
  1423                           tblptru	equ	0xFF8
  1424                           tblptrh	equ	0xFF7
  1425                           tblptrl	equ	0xFF6
  1426                           tablat	equ	0xFF5
  1427                           prodh	equ	0xFF4
  1428                           prodl	equ	0xFF3
  1429                           postinc0	equ	0xFEE
  1430                           wreg	equ	0xFE8
  1431                           postdec1	equ	0xFE5
  1432                           fsr1l	equ	0xFE1
  1433                           postinc2	equ	0xFDE
  1434                           postdec2	equ	0xFDD
  1435                           fsr2h	equ	0xFDA
  1436                           fsr2l	equ	0xFD9
  1437                           status	equ	0xFD8
  1438                           
  1439 ;; *************** function ___wmul *****************
  1440 ;; Defined at:
  1441 ;;		line 15 in file "/Applications/microchip/xc8/v1.36/sources/common/Umul16.c"
  1442 ;; Parameters:    Size  Location     Type
  1443 ;;  multiplier      2   17[COMRAM] unsigned int 
  1444 ;;  multiplicand    2   19[COMRAM] unsigned int 
  1445 ;; Auto vars:     Size  Location     Type
  1446 ;;  product         2   21[COMRAM] unsigned int 
  1447 ;; Return value:  Size  Location     Type
  1448 ;;                  2   17[COMRAM] unsigned int 
  1449 ;; Registers used:
  1450 ;;		wreg, status,2, status,0, prodl, prodh
  1451 ;; Tracked objects:
  1452 ;;		On entry : 0/0
  1453 ;;		On exit  : 0/0
  1454 ;;		Unchanged: 0/0
  1455 ;; Data sizes:     COMRAM   BANK0   BANK1   BANK2   BANK3   BANK4   BANK5   BANK6   BANK7   BANK8   BANK9  BANK10  BANK1
      +1  BANK12  BANK13  BANK14  BANK15
  1456 ;;      Params:         4       0       0       0       0       0       0       0       0       0       0       0       
      +0       0       0       0       0
  1457 ;;      Locals:         2       0       0       0       0       0       0       0       0       0       0       0       
      +0       0       0       0       0
  1458 ;;      Temps:          0       0       0       0       0       0       0       0       0       0       0       0       
      +0       0       0       0       0
  1459 ;;      Totals:         6       0       0       0       0       0       0       0       0       0       0       0       
      +0       0       0       0       0
  1460 ;;Total ram usage:        6 bytes
  1461 ;; Hardware stack levels used:    1
  1462 ;; Hardware stack levels required when called:    1
  1463 ;; This function calls:
  1464 ;;		Nothing
  1465 ;; This function is called by:
  1466 ;;		_printf
  1467 ;; This function uses a non-reentrant model
  1468 ;;
  1469                           
  1470                           	psect	text5
  1471  0017E0                     __ptext5:
  1472                           	opt stack 0
  1473  0017E0                     ___wmul:
  1474                           	opt stack 28
  1475                           
  1476                           ;incstack = 0
  1477  0017E0  5012               	movf	___wmul@multiplier,w,c
  1478  0017E2  0214               	mulwf	___wmul@multiplicand,c
  1479  0017E4  CFF3 F016          	movff	prodl,___wmul@product
  1480  0017E8  CFF4 F017          	movff	prodh,___wmul@product+1
  1481  0017EC  5012               	movf	___wmul@multiplier,w,c
  1482  0017EE  0215               	mulwf	___wmul@multiplicand+1,c
  1483  0017F0  50F3               	movf	prodl,w,c
  1484  0017F2  2617               	addwf	___wmul@product+1,f,c
  1485  0017F4  5013               	movf	___wmul@multiplier+1,w,c
  1486  0017F6  0214               	mulwf	___wmul@multiplicand,c
  1487  0017F8  50F3               	movf	prodl,w,c
  1488  0017FA  2617               	addwf	___wmul@product+1,f,c
  1489  0017FC  C016  F012         	movff	___wmul@product,?___wmul
  1490  001800  C017  F013         	movff	___wmul@product+1,?___wmul+1
  1491  001804  0012               	return	
  1492  001806                     __end_of___wmul:
  1493                           	opt stack 0
  1494                           tblptru	equ	0xFF8
  1495                           tblptrh	equ	0xFF7
  1496                           tblptrl	equ	0xFF6
  1497                           tablat	equ	0xFF5
  1498                           prodh	equ	0xFF4
  1499                           prodl	equ	0xFF3
  1500                           postinc0	equ	0xFEE
  1501                           wreg	equ	0xFE8
  1502                           postdec1	equ	0xFE5
  1503                           fsr1l	equ	0xFE1
  1504                           postinc2	equ	0xFDE
  1505                           postdec2	equ	0xFDD
  1506                           fsr2h	equ	0xFDA
  1507                           fsr2l	equ	0xFD9
  1508                           status	equ	0xFD8
  1509                           
  1510 ;; *************** function ___lwmod *****************
  1511 ;; Defined at:
  1512 ;;		line 8 in file "/Applications/microchip/xc8/v1.36/sources/common/lwmod.c"
  1513 ;; Parameters:    Size  Location     Type
  1514 ;;  dividend        2   24[COMRAM] unsigned int 
  1515 ;;  divisor         2   26[COMRAM] unsigned int 
  1516 ;; Auto vars:     Size  Location     Type
  1517 ;;  counter         1   28[COMRAM] unsigned char 
  1518 ;; Return value:  Size  Location     Type
  1519 ;;                  2   24[COMRAM] unsigned int 
  1520 ;; Registers used:
  1521 ;;		wreg, status,2, status,0
  1522 ;; Tracked objects:
  1523 ;;		On entry : 0/0
  1524 ;;		On exit  : 0/0
  1525 ;;		Unchanged: 0/0
  1526 ;; Data sizes:     COMRAM   BANK0   BANK1   BANK2   BANK3   BANK4   BANK5   BANK6   BANK7   BANK8   BANK9  BANK10  BANK1
      +1  BANK12  BANK13  BANK14  BANK15
  1527 ;;      Params:         4       0       0       0       0       0       0       0       0       0       0       0       
      +0       0       0       0       0
  1528 ;;      Locals:         1       0       0       0       0       0       0       0       0       0       0       0       
      +0       0       0       0       0
  1529 ;;      Temps:          0       0       0       0       0       0       0       0       0       0       0       0       
      +0       0       0       0       0
  1530 ;;      Totals:         5       0       0       0       0       0       0       0       0       0       0       0       
      +0       0       0       0       0
  1531 ;;Total ram usage:        5 bytes
  1532 ;; Hardware stack levels used:    1
  1533 ;; Hardware stack levels required when called:    1
  1534 ;; This function calls:
  1535 ;;		Nothing
  1536 ;; This function is called by:
  1537 ;;		_printf
  1538 ;; This function uses a non-reentrant model
  1539 ;;
  1540                           
  1541                           	psect	text6
  1542  00172C                     __ptext6:
  1543                           	opt stack 0
  1544  00172C                     ___lwmod:
  1545                           	opt stack 28
  1546                           
  1547                           ;incstack = 0
  1548  00172C  501B               	movf	___lwmod@divisor,w,c
  1549  00172E  101C               	iorwf	___lwmod@divisor+1,w,c
  1550  001730  B4D8               	btfsc	status,2,c
  1551  001732  D018               	goto	l707
  1552  001734  0E01               	movlw	1
  1553  001736  6E1D               	movwf	___lwmod@counter,c
  1554  001738  D004               	goto	l1720
  1555  00173A                     l1718:
  1556  00173A  90D8               	bcf	status,0,c
  1557  00173C  361B               	rlcf	___lwmod@divisor,f,c
  1558  00173E  361C               	rlcf	___lwmod@divisor+1,f,c
  1559  001740  2A1D               	incf	___lwmod@counter,f,c
  1560  001742                     l1720:
  1561  001742  AE1C               	btfss	___lwmod@divisor+1,7,c
  1562  001744  D7FA               	goto	l1718
  1563  001746                     l1722:
  1564  001746  501B               	movf	___lwmod@divisor,w,c
  1565  001748  5C19               	subwf	___lwmod@dividend,w,c
  1566  00174A  501C               	movf	___lwmod@divisor+1,w,c
  1567  00174C  581A               	subwfb	___lwmod@dividend+1,w,c
  1568  00174E  A0D8               	btfss	status,0,c
  1569  001750  D004               	goto	l1726
  1570  001752  501B               	movf	___lwmod@divisor,w,c
  1571  001754  5E19               	subwf	___lwmod@dividend,f,c
  1572  001756  501C               	movf	___lwmod@divisor+1,w,c
  1573  001758  5A1A               	subwfb	___lwmod@dividend+1,f,c
  1574  00175A                     l1726:
  1575  00175A  90D8               	bcf	status,0,c
  1576  00175C  321C               	rrcf	___lwmod@divisor+1,f,c
  1577  00175E  321B               	rrcf	___lwmod@divisor,f,c
  1578  001760  2E1D               	decfsz	___lwmod@counter,f,c
  1579  001762  D7F1               	goto	l1722
  1580  001764                     l707:
  1581  001764  C019  F019         	movff	___lwmod@dividend,?___lwmod
  1582  001768  C01A  F01A         	movff	___lwmod@dividend+1,?___lwmod+1
  1583  00176C  0012               	return		;funcret
  1584  00176E                     __end_of___lwmod:
  1585                           	opt stack 0
  1586                           tblptru	equ	0xFF8
  1587                           tblptrh	equ	0xFF7
  1588                           tblptrl	equ	0xFF6
  1589                           tablat	equ	0xFF5
  1590                           prodh	equ	0xFF4
  1591                           prodl	equ	0xFF3
  1592                           postinc0	equ	0xFEE
  1593                           wreg	equ	0xFE8
  1594                           postdec1	equ	0xFE5
  1595                           fsr1l	equ	0xFE1
  1596                           postinc2	equ	0xFDE
  1597                           postdec2	equ	0xFDD
  1598                           fsr2h	equ	0xFDA
  1599                           fsr2l	equ	0xFD9
  1600                           status	equ	0xFD8
  1601                           
  1602 ;; *************** function ___lwdiv *****************
  1603 ;; Defined at:
  1604 ;;		line 8 in file "/Applications/microchip/xc8/v1.36/sources/common/lwdiv.c"
  1605 ;; Parameters:    Size  Location     Type
  1606 ;;  dividend        2   17[COMRAM] unsigned int 
  1607 ;;  divisor         2   19[COMRAM] unsigned int 
  1608 ;; Auto vars:     Size  Location     Type
  1609 ;;  quotient        2   22[COMRAM] unsigned int 
  1610 ;;  counter         1   21[COMRAM] unsigned char 
  1611 ;; Return value:  Size  Location     Type
  1612 ;;                  2   17[COMRAM] unsigned int 
  1613 ;; Registers used:
  1614 ;;		wreg, status,2, status,0
  1615 ;; Tracked objects:
  1616 ;;		On entry : 0/0
  1617 ;;		On exit  : 0/0
  1618 ;;		Unchanged: 0/0
  1619 ;; Data sizes:     COMRAM   BANK0   BANK1   BANK2   BANK3   BANK4   BANK5   BANK6   BANK7   BANK8   BANK9  BANK10  BANK1
      +1  BANK12  BANK13  BANK14  BANK15
  1620 ;;      Params:         4       0       0       0       0       0       0       0       0       0       0       0       
      +0       0       0       0       0
  1621 ;;      Locals:         3       0       0       0       0       0       0       0       0       0       0       0       
      +0       0       0       0       0
  1622 ;;      Temps:          0       0       0       0       0       0       0       0       0       0       0       0       
      +0       0       0       0       0
  1623 ;;      Totals:         7       0       0       0       0       0       0       0       0       0       0       0       
      +0       0       0       0       0
  1624 ;;Total ram usage:        7 bytes
  1625 ;; Hardware stack levels used:    1
  1626 ;; Hardware stack levels required when called:    1
  1627 ;; This function calls:
  1628 ;;		Nothing
  1629 ;; This function is called by:
  1630 ;;		_printf
  1631 ;; This function uses a non-reentrant model
  1632 ;;
  1633                           
  1634                           	psect	text7
  1635  0016DA                     __ptext7:
  1636                           	opt stack 0
  1637  0016DA                     ___lwdiv:
  1638                           	opt stack 28
  1639                           
  1640                           ;incstack = 0
  1641  0016DA  0E00               	movlw	0
  1642  0016DC  6E18               	movwf	___lwdiv@quotient+1,c
  1643  0016DE  0E00               	movlw	0
  1644  0016E0  6E17               	movwf	___lwdiv@quotient,c
  1645  0016E2  5014               	movf	___lwdiv@divisor,w,c
  1646  0016E4  1015               	iorwf	___lwdiv@divisor+1,w,c
  1647  0016E6  B4D8               	btfsc	status,2,c
  1648  0016E8  D01C               	goto	l697
  1649  0016EA  0E01               	movlw	1
  1650  0016EC  6E16               	movwf	___lwdiv@counter,c
  1651  0016EE  D004               	goto	l1700
  1652  0016F0                     l1698:
  1653  0016F0  90D8               	bcf	status,0,c
  1654  0016F2  3614               	rlcf	___lwdiv@divisor,f,c
  1655  0016F4  3615               	rlcf	___lwdiv@divisor+1,f,c
  1656  0016F6  2A16               	incf	___lwdiv@counter,f,c
  1657  0016F8                     l1700:
  1658  0016F8  AE15               	btfss	___lwdiv@divisor+1,7,c
  1659  0016FA  D7FA               	goto	l1698
  1660  0016FC                     l1702:
  1661  0016FC  90D8               	bcf	status,0,c
  1662  0016FE  3617               	rlcf	___lwdiv@quotient,f,c
  1663  001700  3618               	rlcf	___lwdiv@quotient+1,f,c
  1664  001702  5014               	movf	___lwdiv@divisor,w,c
  1665  001704  5C12               	subwf	___lwdiv@dividend,w,c
  1666  001706  5015               	movf	___lwdiv@divisor+1,w,c
  1667  001708  5813               	subwfb	___lwdiv@dividend+1,w,c
  1668  00170A  A0D8               	btfss	status,0,c
  1669  00170C  D005               	goto	l1710
  1670  00170E  5014               	movf	___lwdiv@divisor,w,c
  1671  001710  5E12               	subwf	___lwdiv@dividend,f,c
  1672  001712  5015               	movf	___lwdiv@divisor+1,w,c
  1673  001714  5A13               	subwfb	___lwdiv@dividend+1,f,c
  1674  001716  8017               	bsf	___lwdiv@quotient,0,c
  1675  001718                     l1710:
  1676  001718  90D8               	bcf	status,0,c
  1677  00171A  3215               	rrcf	___lwdiv@divisor+1,f,c
  1678  00171C  3214               	rrcf	___lwdiv@divisor,f,c
  1679  00171E  2E16               	decfsz	___lwdiv@counter,f,c
  1680  001720  D7ED               	goto	l1702
  1681  001722                     l697:
  1682  001722  C017  F012         	movff	___lwdiv@quotient,?___lwdiv
  1683  001726  C018  F013         	movff	___lwdiv@quotient+1,?___lwdiv+1
  1684  00172A  0012               	return		;funcret
  1685  00172C                     __end_of___lwdiv:
  1686                           	opt stack 0
  1687                           tblptru	equ	0xFF8
  1688                           tblptrh	equ	0xFF7
  1689                           tblptrl	equ	0xFF6
  1690                           tablat	equ	0xFF5
  1691                           prodh	equ	0xFF4
  1692                           prodl	equ	0xFF3
  1693                           postinc0	equ	0xFEE
  1694                           wreg	equ	0xFE8
  1695                           postdec1	equ	0xFE5
  1696                           fsr1l	equ	0xFE1
  1697                           postinc2	equ	0xFDE
  1698                           postdec2	equ	0xFDD
  1699                           fsr2h	equ	0xFDA
  1700                           fsr2l	equ	0xFD9
  1701                           status	equ	0xFD8
  1702                           
  1703 ;; *************** function _configureTimers *****************
  1704 ;; Defined at:
  1705 ;;		line 433 in file "main.c"
  1706 ;; Parameters:    Size  Location     Type
  1707 ;;		None
  1708 ;; Auto vars:     Size  Location     Type
  1709 ;;		None
  1710 ;; Return value:  Size  Location     Type
  1711 ;;                  1    wreg      void 
  1712 ;; Registers used:
  1713 ;;		wreg, status,2
  1714 ;; Tracked objects:
  1715 ;;		On entry : 0/0
  1716 ;;		On exit  : 0/0
  1717 ;;		Unchanged: 0/0
  1718 ;; Data sizes:     COMRAM   BANK0   BANK1   BANK2   BANK3   BANK4   BANK5   BANK6   BANK7   BANK8   BANK9  BANK10  BANK1
      +1  BANK12  BANK13  BANK14  BANK15
  1719 ;;      Params:         0       0       0       0       0       0       0       0       0       0       0       0       
      +0       0       0       0       0
  1720 ;;      Locals:         0       0       0       0       0       0       0       0       0       0       0       0       
      +0       0       0       0       0
  1721 ;;      Temps:          0       0       0       0       0       0       0       0       0       0       0       0       
      +0       0       0       0       0
  1722 ;;      Totals:         0       0       0       0       0       0       0       0       0       0       0       0       
      +0       0       0       0       0
  1723 ;;Total ram usage:        0 bytes
  1724 ;; Hardware stack levels used:    1
  1725 ;; Hardware stack levels required when called:    1
  1726 ;; This function calls:
  1727 ;;		Nothing
  1728 ;; This function is called by:
  1729 ;;		_main
  1730 ;; This function uses a non-reentrant model
  1731 ;;
  1732                           
  1733                           	psect	text8
  1734  00156C                     __ptext8:
  1735                           	opt stack 0
  1736  00156C                     _configureTimers:
  1737                           	opt stack 29
  1738                           
  1739                           ;main.c: 435: (INTCONbits.GIE = 0);
  1740                           
  1741                           ;incstack = 0
  1742  00156C  9EF2               	bcf	intcon,7,c	;volatile
  1743                           
  1744                           ;main.c: 437: T1CON = 0;
  1745  00156E  0E00               	movlw	0
  1746  001570  6ECD               	movwf	4045,c	;volatile
  1747                           
  1748                           ;main.c: 438: T1CONbits.TMR1CS = 0b00;
  1749  001572  0E3F               	movlw	-193
  1750  001574  16CD               	andwf	4045,f,c	;volatile
  1751                           
  1752                           ;main.c: 439: T5CON = 0;
  1753  001576  0E00               	movlw	0
  1754  001578  010F               	movlb	15	; () banked
  1755  00157A  6F4E               	movwf	78,b	;volatile
  1756                           
  1757                           ;main.c: 440: T5CONbits.TMR5CS = 0b00;
  1758  00157C  0E3F               	movlw	-193
  1759  00157E  010F               	movlb	15	; () banked
  1760  001580  174E               	andwf	78,f,b	;volatile
  1761                           
  1762                           ;main.c: 445: CCP3CON = 0;
  1763  001582  0E00               	movlw	0
  1764  001584  010F               	movlb	15	; () banked
  1765  001586  6F5D               	movwf	93,b	;volatile
  1766                           
  1767                           ;main.c: 446: CCP2CON = 0;
  1768  001588  0E00               	movlw	0
  1769  00158A  6E66               	movwf	3942,c	;volatile
  1770                           
  1771                           ;main.c: 447: CCP3CONbits.CCP3M = 0b1010;
  1772  00158C  010F               	movlb	15	; () banked
  1773  00158E  515D               	movf	93,w,b	;volatile
  1774  001590  0BF0               	andlw	-16
  1775  001592  090A               	iorlw	10
  1776  001594  6F5D               	movwf	93,b	;volatile
  1777                           
  1778                           ;main.c: 448: CCP2CONbits.CCP2M = 0b1010;
  1779  001596  5066               	movf	3942,w,c	;volatile
  1780  001598  0BF0               	andlw	-16
  1781  00159A  090A               	iorlw	10
  1782  00159C  6E66               	movwf	3942,c	;volatile
  1783                           
  1784                           ; BSR set to: 15
  1785                           ;main.c: 450: CCP3IE = 1;
  1786  00159E  807A               	bsf	3962,0,c	;volatile
  1787                           
  1788                           ; BSR set to: 15
  1789                           ;main.c: 451: CCP2IE = 1;
  1790  0015A0  80A0               	bsf	4000,0,c	;volatile
  1791                           
  1792                           ;main.c: 456: CCPTMRS0bits.C3TSEL = 0;
  1793  0015A2  0E3F               	movlw	-193
  1794  0015A4  010F               	movlb	15	; () banked
  1795  0015A6  1749               	andwf	73,f,b	;volatile
  1796                           
  1797                           ;main.c: 457: CCPTMRS0bits.C2TSEL = 2;
  1798  0015A8  010F               	movlb	15	; () banked
  1799  0015AA  5149               	movf	73,w,b	;volatile
  1800  0015AC  0BE7               	andlw	-25
  1801  0015AE  0910               	iorlw	16
  1802  0015B0  6F49               	movwf	73,b	;volatile
  1803                           
  1804                           ;main.c: 459: CCPR3 = 675;
  1805  0015B2  0E02               	movlw	2
  1806  0015B4  010F               	movlb	15	; () banked
  1807  0015B6  6F5F               	movwf	95,b	;volatile
  1808  0015B8  0EA3               	movlw	163
  1809  0015BA  6F5E               	movwf	94,b	;volatile
  1810                           
  1811                           ;main.c: 460: CCPR2 = 675;
  1812  0015BC  0E02               	movlw	2
  1813  0015BE  6E68               	movwf	3944,c	;volatile
  1814  0015C0  0EA3               	movlw	163
  1815  0015C2  6E67               	movwf	3943,c	;volatile
  1816                           
  1817                           ; BSR set to: 15
  1818                           ;main.c: 464: PIE1bits.TMR2IE = 1;
  1819  0015C4  829D               	bsf	3997,1,c	;volatile
  1820                           
  1821                           ;main.c: 465: T2CON = 0;
  1822  0015C6  0E00               	movlw	0
  1823  0015C8  6EBA               	movwf	4026,c	;volatile
  1824                           
  1825                           ;main.c: 466: T2CONbits.T2CKPS = 0b01;
  1826  0015CA  50BA               	movf	4026,w,c	;volatile
  1827  0015CC  0BFC               	andlw	-4
  1828  0015CE  0901               	iorlw	1
  1829  0015D0  6EBA               	movwf	4026,c	;volatile
  1830                           
  1831                           ; BSR set to: 15
  1832                           ;main.c: 467: T2CONbits.TMR2ON = 1;
  1833  0015D2  84BA               	bsf	4026,2,c	;volatile
  1834                           
  1835                           ;main.c: 468: PR2 = 125;
  1836  0015D4  0E7D               	movlw	125
  1837  0015D6  6EBB               	movwf	4027,c	;volatile
  1838                           
  1839                           ; BSR set to: 15
  1840                           ;main.c: 474: INTCONbits.GIE = 1;
  1841  0015D8  8EF2               	bsf	intcon,7,c	;volatile
  1842                           
  1843                           ; BSR set to: 15
  1844                           ;main.c: 475: INTCONbits.PEIE = 1;
  1845  0015DA  8CF2               	bsf	intcon,6,c	;volatile
  1846                           
  1847                           ;main.c: 476: TMR1 = 0;
  1848  0015DC  0E00               	movlw	0
  1849  0015DE  6ECF               	movwf	4047,c	;volatile
  1850  0015E0  0E00               	movlw	0
  1851  0015E2  6ECE               	movwf	4046,c	;volatile
  1852                           
  1853                           ;main.c: 477: TMR5 = 0;
  1854  0015E4  0E00               	movlw	0
  1855  0015E6  010F               	movlb	15	; () banked
  1856  0015E8  6F50               	movwf	80,b	;volatile
  1857  0015EA  0E00               	movlw	0
  1858  0015EC  6F4F               	movwf	79,b	;volatile
  1859                           
  1860                           ; BSR set to: 15
  1861                           ;main.c: 478: TMR1ON = 1;
  1862  0015EE  80CD               	bsf	4045,0,c	;volatile
  1863                           
  1864                           ; BSR set to: 15
  1865                           ;main.c: 479: TMR5ON = 1;
  1866  0015F0  010F               	movlb	15	; () banked
  1867  0015F2  814E               	bsf	78,0,b	;volatile
  1868                           
  1869                           ; BSR set to: 15
  1870                           ;main.c: 481: (INTCONbits.GIE = 1);
  1871  0015F4  8EF2               	bsf	intcon,7,c	;volatile
  1872                           
  1873                           ; BSR set to: 15
  1874                           ;main.c: 483: TRISDbits.TRISD0 = 0;
  1875  0015F6  9095               	bcf	3989,0,c	;volatile
  1876                           
  1877                           ; BSR set to: 15
  1878                           ;main.c: 484: TRISDbits.TRISD1 = 0;
  1879  0015F8  9295               	bcf	3989,1,c	;volatile
  1880                           
  1881                           ;main.c: 485: ANSELD = 0;
  1882  0015FA  0E00               	movlw	0
  1883  0015FC  010F               	movlb	15	; () banked
  1884  0015FE  6F3B               	movwf	59,b	;volatile
  1885                           
  1886                           ; BSR set to: 15
  1887  001600  0012               	return		;funcret
  1888  001602                     __end_of_configureTimers:
  1889                           	opt stack 0
  1890                           tblptru	equ	0xFF8
  1891                           tblptrh	equ	0xFF7
  1892                           tblptrl	equ	0xFF6
  1893                           tablat	equ	0xFF5
  1894                           prodh	equ	0xFF4
  1895                           prodl	equ	0xFF3
  1896                           intcon	equ	0xFF2
  1897                           postinc0	equ	0xFEE
  1898                           wreg	equ	0xFE8
  1899                           postdec1	equ	0xFE5
  1900                           fsr1l	equ	0xFE1
  1901                           postinc2	equ	0xFDE
  1902                           postdec2	equ	0xFDD
  1903                           fsr2h	equ	0xFDA
  1904                           fsr2l	equ	0xFD9
  1905                           status	equ	0xFD8
  1906                           
  1907 ;; *************** function _configureComparators *****************
  1908 ;; Defined at:
  1909 ;;		line 489 in file "main.c"
  1910 ;; Parameters:    Size  Location     Type
  1911 ;;		None
  1912 ;; Auto vars:     Size  Location     Type
  1913 ;;		None
  1914 ;; Return value:  Size  Location     Type
  1915 ;;                  1    wreg      void 
  1916 ;; Registers used:
  1917 ;;		wreg, status,2
  1918 ;; Tracked objects:
  1919 ;;		On entry : 0/0
  1920 ;;		On exit  : 0/0
  1921 ;;		Unchanged: 0/0
  1922 ;; Data sizes:     COMRAM   BANK0   BANK1   BANK2   BANK3   BANK4   BANK5   BANK6   BANK7   BANK8   BANK9  BANK10  BANK1
      +1  BANK12  BANK13  BANK14  BANK15
  1923 ;;      Params:         0       0       0       0       0       0       0       0       0       0       0       0       
      +0       0       0       0       0
  1924 ;;      Locals:         0       0       0       0       0       0       0       0       0       0       0       0       
      +0       0       0       0       0
  1925 ;;      Temps:          0       0       0       0       0       0       0       0       0       0       0       0       
      +0       0       0       0       0
  1926 ;;      Totals:         0       0       0       0       0       0       0       0       0       0       0       0       
      +0       0       0       0       0
  1927 ;;Total ram usage:        0 bytes
  1928 ;; Hardware stack levels used:    1
  1929 ;; Hardware stack levels required when called:    1
  1930 ;; This function calls:
  1931 ;;		Nothing
  1932 ;; This function is called by:
  1933 ;;		_main
  1934 ;; This function uses a non-reentrant model
  1935 ;;
  1936                           
  1937                           	psect	text9
  1938  0017A8                     __ptext9:
  1939                           	opt stack 0
  1940  0017A8                     _configureComparators:
  1941                           	opt stack 29
  1942                           
  1943                           ;main.c: 493: VREFCON0bits.FVREN=1;
  1944                           
  1945                           ; BSR set to: 15
  1946                           ;incstack = 0
  1947  0017A8  010F               	movlb	15	; () banked
  1948  0017AA  8F42               	bsf	66,7,b	;volatile
  1949                           
  1950                           ;main.c: 494: VREFCON0bits.FVRST=0;
  1951  0017AC  010F               	movlb	15	; () banked
  1952  0017AE  9D42               	bcf	66,6,b	;volatile
  1953                           
  1954                           ; BSR set to: 15
  1955                           ;main.c: 495: VREFCON0bits.FVRS=0b01;
  1956  0017B0  010F               	movlb	15	; () banked
  1957  0017B2  5142               	movf	66,w,b	;volatile
  1958  0017B4  0BCF               	andlw	-49
  1959  0017B6  0910               	iorlw	16
  1960  0017B8  6F42               	movwf	66,b	;volatile
  1961                           
  1962                           ; BSR set to: 15
  1963                           ;main.c: 497: TRISBbits.TRISB1 = 1;
  1964  0017BA  8293               	bsf	3987,1,c	;volatile
  1965                           
  1966                           ; BSR set to: 15
  1967                           ;main.c: 498: ANSELBbits.ANSB1 = 1;
  1968  0017BC  010F               	movlb	15	; () banked
  1969  0017BE  8339               	bsf	57,1,b	;volatile
  1970                           
  1971                           ; BSR set to: 15
  1972                           ;main.c: 499: WPUBbits.WPUB1 = 1;
  1973  0017C0  8261               	bsf	3937,1,c	;volatile
  1974                           
  1975                           ; BSR set to: 15
  1976                           ;main.c: 502: CM2CON0bits.C2ON = 1;
  1977  0017C2  8E78               	bsf	3960,7,c	;volatile
  1978                           
  1979                           ; BSR set to: 15
  1980                           ;main.c: 503: CM2CON0bits.C2OUT = 0;
  1981  0017C4  9C78               	bcf	3960,6,c	;volatile
  1982                           
  1983                           ; BSR set to: 15
  1984                           ;main.c: 504: CM2CON0bits.C2OE = 0;
  1985  0017C6  9A78               	bcf	3960,5,c	;volatile
  1986                           
  1987                           ; BSR set to: 15
  1988                           ;main.c: 505: CM2CON0bits.C2POL = 1;
  1989  0017C8  8878               	bsf	3960,4,c	;volatile
  1990                           
  1991                           ; BSR set to: 15
  1992                           ;main.c: 506: CM2CON0bits.C2SP = 1;
  1993  0017CA  8678               	bsf	3960,3,c	;volatile
  1994                           
  1995                           ; BSR set to: 15
  1996                           ;main.c: 507: CM2CON0bits.C2R = 1;
  1997  0017CC  8478               	bsf	3960,2,c	;volatile
  1998                           
  1999                           ;main.c: 508: CM2CON0bits.C2CH = 0b11;
  2000  0017CE  0E03               	movlw	3
  2001  0017D0  1278               	iorwf	3960,f,c	;volatile
  2002                           
  2003                           ; BSR set to: 15
  2004                           ;main.c: 510: CM2CON1bits.C2RSEL = 1;
  2005  0017D2  8877               	bsf	3959,4,c	;volatile
  2006                           
  2007                           ; BSR set to: 15
  2008                           ;main.c: 511: CM2CON1bits.C2HYS = 0;
  2009  0017D4  9477               	bcf	3959,2,c	;volatile
  2010                           
  2011                           ; BSR set to: 15
  2012                           ;main.c: 512: CM2CON1bits.C2SYNC = 0;
  2013  0017D6  9077               	bcf	3959,0,c	;volatile
  2014                           
  2015                           ; BSR set to: 15
  2016                           ;main.c: 515: PIR2bits.C2IF = 0;
  2017  0017D8  9AA1               	bcf	4001,5,c	;volatile
  2018                           
  2019                           ; BSR set to: 15
  2020                           ;main.c: 516: PIE2bits.C2IE = 1;
  2021  0017DA  8AA0               	bsf	4000,5,c	;volatile
  2022                           
  2023                           ; BSR set to: 15
  2024                           ;main.c: 517: PIE2bits.C1IE = 0;
  2025  0017DC  9CA0               	bcf	4000,6,c	;volatile
  2026                           
  2027                           ; BSR set to: 15
  2028  0017DE  0012               	return		;funcret
  2029  0017E0                     __end_of_configureComparators:
  2030                           	opt stack 0
  2031                           tblptru	equ	0xFF8
  2032                           tblptrh	equ	0xFF7
  2033                           tblptrl	equ	0xFF6
  2034                           tablat	equ	0xFF5
  2035                           prodh	equ	0xFF4
  2036                           prodl	equ	0xFF3
  2037                           intcon	equ	0xFF2
  2038                           postinc0	equ	0xFEE
  2039                           wreg	equ	0xFE8
  2040                           postdec1	equ	0xFE5
  2041                           fsr1l	equ	0xFE1
  2042                           postinc2	equ	0xFDE
  2043                           postdec2	equ	0xFDD
  2044                           fsr2h	equ	0xFDA
  2045                           fsr2l	equ	0xFD9
  2046                           status	equ	0xFD8
  2047                           
  2048 ;; *************** function ___lmul *****************
  2049 ;; Defined at:
  2050 ;;		line 15 in file "/Applications/microchip/xc8/v1.36/sources/common/Umul32.c"
  2051 ;; Parameters:    Size  Location     Type
  2052 ;;  multiplier      4   17[COMRAM] unsigned long 
  2053 ;;  multiplicand    4   21[COMRAM] unsigned long 
  2054 ;; Auto vars:     Size  Location     Type
  2055 ;;  product         4   25[COMRAM] unsigned long 
  2056 ;; Return value:  Size  Location     Type
  2057 ;;                  4   17[COMRAM] unsigned long 
  2058 ;; Registers used:
  2059 ;;		wreg, status,2, status,0
  2060 ;; Tracked objects:
  2061 ;;		On entry : 0/0
  2062 ;;		On exit  : 0/0
  2063 ;;		Unchanged: 0/0
  2064 ;; Data sizes:     COMRAM   BANK0   BANK1   BANK2   BANK3   BANK4   BANK5   BANK6   BANK7   BANK8   BANK9  BANK10  BANK1
      +1  BANK12  BANK13  BANK14  BANK15
  2065 ;;      Params:         8       0       0       0       0       0       0       0       0       0       0       0       
      +0       0       0       0       0
  2066 ;;      Locals:         4       0       0       0       0       0       0       0       0       0       0       0       
      +0       0       0       0       0
  2067 ;;      Temps:          0       0       0       0       0       0       0       0       0       0       0       0       
      +0       0       0       0       0
  2068 ;;      Totals:        12       0       0       0       0       0       0       0       0       0       0       0       
      +0       0       0       0       0
  2069 ;;Total ram usage:       12 bytes
  2070 ;; Hardware stack levels used:    1
  2071 ;; Hardware stack levels required when called:    1
  2072 ;; This function calls:
  2073 ;;		Nothing
  2074 ;; This function is called by:
  2075 ;;		_main
  2076 ;; This function uses a non-reentrant model
  2077 ;;
  2078                           
  2079                           	psect	text10
  2080  001684                     __ptext10:
  2081                           	opt stack 0
  2082  001684                     ___lmul:
  2083                           	opt stack 29
  2084                           
  2085                           ; BSR set to: 15
  2086                           ;incstack = 0
  2087  001684  0E00               	movlw	0
  2088  001686  6E1A               	movwf	___lmul@product,c
  2089  001688  0E00               	movlw	0
  2090  00168A  6E1B               	movwf	___lmul@product+1,c
  2091  00168C  0E00               	movlw	0
  2092  00168E  6E1C               	movwf	___lmul@product+2,c
  2093  001690  0E00               	movlw	0
  2094  001692  6E1D               	movwf	___lmul@product+3,c
  2095  001694                     l1938:
  2096  001694  A012               	btfss	___lmul@multiplier,0,c
  2097  001696  D008               	goto	l1942
  2098  001698  5016               	movf	___lmul@multiplicand,w,c
  2099  00169A  261A               	addwf	___lmul@product,f,c
  2100  00169C  5017               	movf	___lmul@multiplicand+1,w,c
  2101  00169E  221B               	addwfc	___lmul@product+1,f,c
  2102  0016A0  5018               	movf	___lmul@multiplicand+2,w,c
  2103  0016A2  221C               	addwfc	___lmul@product+2,f,c
  2104  0016A4  5019               	movf	___lmul@multiplicand+3,w,c
  2105  0016A6  221D               	addwfc	___lmul@product+3,f,c
  2106  0016A8                     l1942:
  2107  0016A8  90D8               	bcf	status,0,c
  2108  0016AA  3616               	rlcf	___lmul@multiplicand,f,c
  2109  0016AC  3617               	rlcf	___lmul@multiplicand+1,f,c
  2110  0016AE  3618               	rlcf	___lmul@multiplicand+2,f,c
  2111  0016B0  3619               	rlcf	___lmul@multiplicand+3,f,c
  2112  0016B2  90D8               	bcf	status,0,c
  2113  0016B4  3215               	rrcf	___lmul@multiplier+3,f,c
  2114  0016B6  3214               	rrcf	___lmul@multiplier+2,f,c
  2115  0016B8  3213               	rrcf	___lmul@multiplier+1,f,c
  2116  0016BA  3212               	rrcf	___lmul@multiplier,f,c
  2117  0016BC  5012               	movf	___lmul@multiplier,w,c
  2118  0016BE  1013               	iorwf	___lmul@multiplier+1,w,c
  2119  0016C0  1014               	iorwf	___lmul@multiplier+2,w,c
  2120  0016C2  1015               	iorwf	___lmul@multiplier+3,w,c
  2121  0016C4  A4D8               	btfss	status,2,c
  2122  0016C6  D7E6               	goto	l1938
  2123  0016C8  C01A  F012         	movff	___lmul@product,?___lmul
  2124  0016CC  C01B  F013         	movff	___lmul@product+1,?___lmul+1
  2125  0016D0  C01C  F014         	movff	___lmul@product+2,?___lmul+2
  2126  0016D4  C01D  F015         	movff	___lmul@product+3,?___lmul+3
  2127  0016D8  0012               	return		;funcret
  2128  0016DA                     __end_of___lmul:
  2129                           	opt stack 0
  2130                           tblptru	equ	0xFF8
  2131                           tblptrh	equ	0xFF7
  2132                           tblptrl	equ	0xFF6
  2133                           tablat	equ	0xFF5
  2134                           prodh	equ	0xFF4
  2135                           prodl	equ	0xFF3
  2136                           intcon	equ	0xFF2
  2137                           postinc0	equ	0xFEE
  2138                           wreg	equ	0xFE8
  2139                           postdec1	equ	0xFE5
  2140                           fsr1l	equ	0xFE1
  2141                           postinc2	equ	0xFDE
  2142                           postdec2	equ	0xFDD
  2143                           fsr2h	equ	0xFDA
  2144                           fsr2l	equ	0xFD9
  2145                           status	equ	0xFD8
  2146                           
  2147 ;; *************** function ___lldiv *****************
  2148 ;; Defined at:
  2149 ;;		line 8 in file "/Applications/microchip/xc8/v1.36/sources/common/lldiv.c"
  2150 ;; Parameters:    Size  Location     Type
  2151 ;;  dividend        4   29[COMRAM] unsigned long 
  2152 ;;  divisor         4   33[COMRAM] unsigned long 
  2153 ;; Auto vars:     Size  Location     Type
  2154 ;;  quotient        4   37[COMRAM] unsigned long 
  2155 ;;  counter         1   41[COMRAM] unsigned char 
  2156 ;; Return value:  Size  Location     Type
  2157 ;;                  4   29[COMRAM] unsigned long 
  2158 ;; Registers used:
  2159 ;;		wreg, status,2, status,0
  2160 ;; Tracked objects:
  2161 ;;		On entry : 0/0
  2162 ;;		On exit  : 0/0
  2163 ;;		Unchanged: 0/0
  2164 ;; Data sizes:     COMRAM   BANK0   BANK1   BANK2   BANK3   BANK4   BANK5   BANK6   BANK7   BANK8   BANK9  BANK10  BANK1
      +1  BANK12  BANK13  BANK14  BANK15
  2165 ;;      Params:         8       0       0       0       0       0       0       0       0       0       0       0       
      +0       0       0       0       0
  2166 ;;      Locals:         5       0       0       0       0       0       0       0       0       0       0       0       
      +0       0       0       0       0
  2167 ;;      Temps:          0       0       0       0       0       0       0       0       0       0       0       0       
      +0       0       0       0       0
  2168 ;;      Totals:        13       0       0       0       0       0       0       0       0       0       0       0       
      +0       0       0       0       0
  2169 ;;Total ram usage:       13 bytes
  2170 ;; Hardware stack levels used:    1
  2171 ;; Hardware stack levels required when called:    1
  2172 ;; This function calls:
  2173 ;;		Nothing
  2174 ;; This function is called by:
  2175 ;;		_main
  2176 ;; This function uses a non-reentrant model
  2177 ;;
  2178                           
  2179                           	psect	text11
  2180  001602                     __ptext11:
  2181                           	opt stack 0
  2182  001602                     ___lldiv:
  2183                           	opt stack 29
  2184                           
  2185                           ;incstack = 0
  2186  001602  0E00               	movlw	0
  2187  001604  6E26               	movwf	___lldiv@quotient,c
  2188  001606  0E00               	movlw	0
  2189  001608  6E27               	movwf	___lldiv@quotient+1,c
  2190  00160A  0E00               	movlw	0
  2191  00160C  6E28               	movwf	___lldiv@quotient+2,c
  2192  00160E  0E00               	movlw	0
  2193  001610  6E29               	movwf	___lldiv@quotient+3,c
  2194  001612  5022               	movf	___lldiv@divisor,w,c
  2195  001614  1023               	iorwf	___lldiv@divisor+1,w,c
  2196  001616  1024               	iorwf	___lldiv@divisor+2,w,c
  2197  001618  1025               	iorwf	___lldiv@divisor+3,w,c
  2198  00161A  B4D8               	btfsc	status,2,c
  2199  00161C  D02A               	goto	l644
  2200  00161E  0E01               	movlw	1
  2201  001620  6E2A               	movwf	___lldiv@counter,c
  2202  001622  D006               	goto	l1954
  2203  001624                     l1952:
  2204  001624  90D8               	bcf	status,0,c
  2205  001626  3622               	rlcf	___lldiv@divisor,f,c
  2206  001628  3623               	rlcf	___lldiv@divisor+1,f,c
  2207  00162A  3624               	rlcf	___lldiv@divisor+2,f,c
  2208  00162C  3625               	rlcf	___lldiv@divisor+3,f,c
  2209  00162E  2A2A               	incf	___lldiv@counter,f,c
  2210  001630                     l1954:
  2211  001630  AE25               	btfss	___lldiv@divisor+3,7,c
  2212  001632  D7F8               	goto	l1952
  2213  001634                     l1956:
  2214  001634  90D8               	bcf	status,0,c
  2215  001636  3626               	rlcf	___lldiv@quotient,f,c
  2216  001638  3627               	rlcf	___lldiv@quotient+1,f,c
  2217  00163A  3628               	rlcf	___lldiv@quotient+2,f,c
  2218  00163C  3629               	rlcf	___lldiv@quotient+3,f,c
  2219  00163E  5022               	movf	___lldiv@divisor,w,c
  2220  001640  5C1E               	subwf	___lldiv@dividend,w,c
  2221  001642  5023               	movf	___lldiv@divisor+1,w,c
  2222  001644  581F               	subwfb	___lldiv@dividend+1,w,c
  2223  001646  5024               	movf	___lldiv@divisor+2,w,c
  2224  001648  5820               	subwfb	___lldiv@dividend+2,w,c
  2225  00164A  5025               	movf	___lldiv@divisor+3,w,c
  2226  00164C  5821               	subwfb	___lldiv@dividend+3,w,c
  2227  00164E  A0D8               	btfss	status,0,c
  2228  001650  D009               	goto	l1964
  2229  001652  5022               	movf	___lldiv@divisor,w,c
  2230  001654  5E1E               	subwf	___lldiv@dividend,f,c
  2231  001656  5023               	movf	___lldiv@divisor+1,w,c
  2232  001658  5A1F               	subwfb	___lldiv@dividend+1,f,c
  2233  00165A  5024               	movf	___lldiv@divisor+2,w,c
  2234  00165C  5A20               	subwfb	___lldiv@dividend+2,f,c
  2235  00165E  5025               	movf	___lldiv@divisor+3,w,c
  2236  001660  5A21               	subwfb	___lldiv@dividend+3,f,c
  2237  001662  8026               	bsf	___lldiv@quotient,0,c
  2238  001664                     l1964:
  2239  001664  90D8               	bcf	status,0,c
  2240  001666  3225               	rrcf	___lldiv@divisor+3,f,c
  2241  001668  3224               	rrcf	___lldiv@divisor+2,f,c
  2242  00166A  3223               	rrcf	___lldiv@divisor+1,f,c
  2243  00166C  3222               	rrcf	___lldiv@divisor,f,c
  2244  00166E  2E2A               	decfsz	___lldiv@counter,f,c
  2245  001670  D7E1               	goto	l1956
  2246  001672                     l644:
  2247  001672  C026  F01E         	movff	___lldiv@quotient,?___lldiv
  2248  001676  C027  F01F         	movff	___lldiv@quotient+1,?___lldiv+1
  2249  00167A  C028  F020         	movff	___lldiv@quotient+2,?___lldiv+2
  2250  00167E  C029  F021         	movff	___lldiv@quotient+3,?___lldiv+3
  2251  001682  0012               	return		;funcret
  2252  001684                     __end_of___lldiv:
  2253                           	opt stack 0
  2254                           tblptru	equ	0xFF8
  2255                           tblptrh	equ	0xFF7
  2256                           tblptrl	equ	0xFF6
  2257                           tablat	equ	0xFF5
  2258                           prodh	equ	0xFF4
  2259                           prodl	equ	0xFF3
  2260                           intcon	equ	0xFF2
  2261                           postinc0	equ	0xFEE
  2262                           wreg	equ	0xFE8
  2263                           postdec1	equ	0xFE5
  2264                           fsr1l	equ	0xFE1
  2265                           postinc2	equ	0xFDE
  2266                           postdec2	equ	0xFDD
  2267                           fsr2h	equ	0xFDA
  2268                           fsr2l	equ	0xFD9
  2269                           status	equ	0xFD8
  2270                           
  2271 ;; *************** function _LCDinit *****************
  2272 ;; Defined at:
  2273 ;;		line 60 in file "lcd.c"
  2274 ;; Parameters:    Size  Location     Type
  2275 ;;		None
  2276 ;; Auto vars:     Size  Location     Type
  2277 ;;		None
  2278 ;; Return value:  Size  Location     Type
  2279 ;;                  1    wreg      void 
  2280 ;; Registers used:
  2281 ;;		wreg, status,2, cstack
  2282 ;; Tracked objects:
  2283 ;;		On entry : 0/0
  2284 ;;		On exit  : 0/0
  2285 ;;		Unchanged: 0/0
  2286 ;; Data sizes:     COMRAM   BANK0   BANK1   BANK2   BANK3   BANK4   BANK5   BANK6   BANK7   BANK8   BANK9  BANK10  BANK1
      +1  BANK12  BANK13  BANK14  BANK15
  2287 ;;      Params:         0       0       0       0       0       0       0       0       0       0       0       0       
      +0       0       0       0       0
  2288 ;;      Locals:         0       0       0       0       0       0       0       0       0       0       0       0       
      +0       0       0       0       0
  2289 ;;      Temps:          1       0       0       0       0       0       0       0       0       0       0       0       
      +0       0       0       0       0
  2290 ;;      Totals:         1       0       0       0       0       0       0       0       0       0       0       0       
      +0       0       0       0       0
  2291 ;;Total ram usage:        1 bytes
  2292 ;; Hardware stack levels used:    1
  2293 ;; Hardware stack levels required when called:    2
  2294 ;; This function calls:
  2295 ;;		_LCDcheckBF
  2296 ;;		_LCDcmd
  2297 ;; This function is called by:
  2298 ;;		_main
  2299 ;; This function uses a non-reentrant model
  2300 ;;
  2301                           
  2302                           	psect	text12
  2303  0014A6                     __ptext12:
  2304                           	opt stack 0
  2305  0014A6                     _LCDinit:
  2306                           	opt stack 28
  2307                           
  2308                           ;lcd.c: 63: TRISA = 0;
  2309                           
  2310                           ;incstack = 0
  2311  0014A6  0E00               	movlw	0
  2312  0014A8  6E92               	movwf	3986,c	;volatile
  2313                           
  2314                           ;lcd.c: 64: TRISEbits.RE0 = 0;
  2315  0014AA  9096               	bcf	3990,0,c	;volatile
  2316                           
  2317                           ;lcd.c: 65: TRISEbits.RE1 = 0;
  2318  0014AC  9296               	bcf	3990,1,c	;volatile
  2319                           
  2320                           ;lcd.c: 66: TRISEbits.RE2 = 0;
  2321  0014AE  9496               	bcf	3990,2,c	;volatile
  2322                           
  2323                           ;lcd.c: 69: LATEbits.LATE0 = 0;
  2324  0014B0  908D               	bcf	3981,0,c	;volatile
  2325                           
  2326                           ;lcd.c: 70: LATEbits.LATE1 = 0;
  2327  0014B2  928D               	bcf	3981,1,c	;volatile
  2328                           
  2329                           ;lcd.c: 71: LATEbits.LATE2 = 1;
  2330  0014B4  848D               	bsf	3981,2,c	;volatile
  2331                           
  2332                           ;lcd.c: 73: _delay((unsigned long)((50)*(2000000/4000.0)));
  2333  0014B6  0E21               	movlw	33
  2334  0014B8  6E13               	movwf	??_LCDinit& (0+255),c
  2335  0014BA  0E76               	movlw	118
  2336  0014BC                     u1347:
  2337  0014BC  2EE8               	decfsz	wreg,f,c
  2338  0014BE  D7FE               	goto	u1347
  2339  0014C0  2E13               	decfsz	??_LCDinit& (0+255),f,c
  2340  0014C2  D7FC               	goto	u1347
  2341  0014C4  D000               	nop2	
  2342                           
  2343                           ;lcd.c: 74: LCDcmd(0b00110000);
  2344  0014C6  0E30               	movlw	48
  2345  0014C8  EC2D  F00C         	call	_LCDcmd
  2346                           
  2347                           ;lcd.c: 75: _delay((unsigned long)((60)*(2000000/4000.0)));
  2348  0014CC  0E27               	movlw	39
  2349  0014CE  6E13               	movwf	??_LCDinit& (0+255),c
  2350  0014D0  0EF5               	movlw	245
  2351  0014D2                     u1357:
  2352  0014D2  2EE8               	decfsz	wreg,f,c
  2353  0014D4  D7FE               	goto	u1357
  2354  0014D6  2E13               	decfsz	??_LCDinit& (0+255),f,c
  2355  0014D8  D7FC               	goto	u1357
  2356  0014DA  F000               	nop	
  2357                           
  2358                           ;lcd.c: 76: LCDcmd(0b00110000);
  2359  0014DC  0E30               	movlw	48
  2360  0014DE  EC2D  F00C         	call	_LCDcmd
  2361                           
  2362                           ;lcd.c: 77: _delay((unsigned long)((60)*(2000000/4000.0)));
  2363  0014E2  0E27               	movlw	39
  2364  0014E4  6E13               	movwf	??_LCDinit& (0+255),c
  2365  0014E6  0EF5               	movlw	245
  2366  0014E8                     u1367:
  2367  0014E8  2EE8               	decfsz	wreg,f,c
  2368  0014EA  D7FE               	goto	u1367
  2369  0014EC  2E13               	decfsz	??_LCDinit& (0+255),f,c
  2370  0014EE  D7FC               	goto	u1367
  2371  0014F0  F000               	nop	
  2372                           
  2373                           ;lcd.c: 78: LCDcmd(0b00110000);
  2374  0014F2  0E30               	movlw	48
  2375  0014F4  EC2D  F00C         	call	_LCDcmd
  2376                           
  2377                           ;lcd.c: 79: _delay((unsigned long)((60)*(2000000/4000.0)));
  2378  0014F8  0E27               	movlw	39
  2379  0014FA  6E13               	movwf	??_LCDinit& (0+255),c
  2380  0014FC  0EF5               	movlw	245
  2381  0014FE                     u1377:
  2382  0014FE  2EE8               	decfsz	wreg,f,c
  2383  001500  D7FE               	goto	u1377
  2384  001502  2E13               	decfsz	??_LCDinit& (0+255),f,c
  2385  001504  D7FC               	goto	u1377
  2386  001506  F000               	nop	
  2387                           
  2388                           ;lcd.c: 80: LCDcmd(0b00111000);
  2389  001508  0E38               	movlw	56
  2390  00150A  EC2D  F00C         	call	_LCDcmd
  2391                           
  2392                           ;lcd.c: 81: _delay((unsigned long)((60)*(2000000/4000.0)));
  2393  00150E  0E27               	movlw	39
  2394  001510  6E13               	movwf	??_LCDinit& (0+255),c
  2395  001512  0EF5               	movlw	245
  2396  001514                     u1387:
  2397  001514  2EE8               	decfsz	wreg,f,c
  2398  001516  D7FE               	goto	u1387
  2399  001518  2E13               	decfsz	??_LCDinit& (0+255),f,c
  2400  00151A  D7FC               	goto	u1387
  2401  00151C  F000               	nop	
  2402                           
  2403                           ;lcd.c: 82: LCDcmd(0b00001000);
  2404  00151E  0E08               	movlw	8
  2405  001520  EC2D  F00C         	call	_LCDcmd
  2406                           
  2407                           ;lcd.c: 83: _delay((unsigned long)((60)*(2000000/4000.0)));
  2408  001524  0E27               	movlw	39
  2409  001526  6E13               	movwf	??_LCDinit& (0+255),c
  2410  001528  0EF5               	movlw	245
  2411  00152A                     u1397:
  2412  00152A  2EE8               	decfsz	wreg,f,c
  2413  00152C  D7FE               	goto	u1397
  2414  00152E  2E13               	decfsz	??_LCDinit& (0+255),f,c
  2415  001530  D7FC               	goto	u1397
  2416  001532  F000               	nop	
  2417                           
  2418                           ;lcd.c: 84: LCDcmd(0b00000001);
  2419  001534  0E01               	movlw	1
  2420  001536  EC2D  F00C         	call	_LCDcmd
  2421                           
  2422                           ;lcd.c: 85: _delay((unsigned long)((60)*(2000000/4000.0)));
  2423  00153A  0E27               	movlw	39
  2424  00153C  6E13               	movwf	??_LCDinit& (0+255),c
  2425  00153E  0EF5               	movlw	245
  2426  001540                     u1407:
  2427  001540  2EE8               	decfsz	wreg,f,c
  2428  001542  D7FE               	goto	u1407
  2429  001544  2E13               	decfsz	??_LCDinit& (0+255),f,c
  2430  001546  D7FC               	goto	u1407
  2431  001548  F000               	nop	
  2432                           
  2433                           ;lcd.c: 86: LCDcmd(0b00000110);
  2434  00154A  0E06               	movlw	6
  2435  00154C  EC2D  F00C         	call	_LCDcmd
  2436                           
  2437                           ;lcd.c: 87: _delay((unsigned long)((60)*(2000000/4000.0)));
  2438  001550  0E27               	movlw	39
  2439  001552  6E13               	movwf	??_LCDinit& (0+255),c
  2440  001554  0EF5               	movlw	245
  2441  001556                     u1417:
  2442  001556  2EE8               	decfsz	wreg,f,c
  2443  001558  D7FE               	goto	u1417
  2444  00155A  2E13               	decfsz	??_LCDinit& (0+255),f,c
  2445  00155C  D7FC               	goto	u1417
  2446  00155E  F000               	nop	
  2447                           
  2448                           ;lcd.c: 90: LCDcmd(0b00001111);
  2449  001560  0E0F               	movlw	15
  2450  001562  EC2D  F00C         	call	_LCDcmd
  2451                           
  2452                           ;lcd.c: 91: LCDcheckBF();
  2453  001566  EC12  F00C         	call	_LCDcheckBF	;wreg free
  2454  00156A  0012               	return		;funcret
  2455  00156C                     __end_of_LCDinit:
  2456                           	opt stack 0
  2457                           tblptru	equ	0xFF8
  2458                           tblptrh	equ	0xFF7
  2459                           tblptrl	equ	0xFF6
  2460                           tablat	equ	0xFF5
  2461                           prodh	equ	0xFF4
  2462                           prodl	equ	0xFF3
  2463                           intcon	equ	0xFF2
  2464                           postinc0	equ	0xFEE
  2465                           wreg	equ	0xFE8
  2466                           postdec1	equ	0xFE5
  2467                           fsr1l	equ	0xFE1
  2468                           postinc2	equ	0xFDE
  2469                           postdec2	equ	0xFDD
  2470                           fsr2h	equ	0xFDA
  2471                           fsr2l	equ	0xFD9
  2472                           status	equ	0xFD8
  2473                           
  2474 ;; *************** function _LCDclear *****************
  2475 ;; Defined at:
  2476 ;;		line 126 in file "lcd.c"
  2477 ;; Parameters:    Size  Location     Type
  2478 ;;		None
  2479 ;; Auto vars:     Size  Location     Type
  2480 ;;		None
  2481 ;; Return value:  Size  Location     Type
  2482 ;;                  1    wreg      void 
  2483 ;; Registers used:
  2484 ;;		wreg, cstack
  2485 ;; Tracked objects:
  2486 ;;		On entry : 0/0
  2487 ;;		On exit  : 0/0
  2488 ;;		Unchanged: 0/0
  2489 ;; Data sizes:     COMRAM   BANK0   BANK1   BANK2   BANK3   BANK4   BANK5   BANK6   BANK7   BANK8   BANK9  BANK10  BANK1
      +1  BANK12  BANK13  BANK14  BANK15
  2490 ;;      Params:         0       0       0       0       0       0       0       0       0       0       0       0       
      +0       0       0       0       0
  2491 ;;      Locals:         0       0       0       0       0       0       0       0       0       0       0       0       
      +0       0       0       0       0
  2492 ;;      Temps:          0       0       0       0       0       0       0       0       0       0       0       0       
      +0       0       0       0       0
  2493 ;;      Totals:         0       0       0       0       0       0       0       0       0       0       0       0       
      +0       0       0       0       0
  2494 ;;Total ram usage:        0 bytes
  2495 ;; Hardware stack levels used:    1
  2496 ;; Hardware stack levels required when called:    2
  2497 ;; This function calls:
  2498 ;;		_LCDcheckBF
  2499 ;;		_LCDcmd
  2500 ;; This function is called by:
  2501 ;;		_main
  2502 ;;		_LCDputs
  2503 ;; This function uses a non-reentrant model
  2504 ;;
  2505                           
  2506                           	psect	text13
  2507  00184A                     __ptext13:
  2508                           	opt stack 0
  2509  00184A                     _LCDclear:
  2510                           	opt stack 28
  2511                           
  2512                           ;lcd.c: 128: LATEbits.LATE0 = 0;
  2513                           
  2514                           ;incstack = 0
  2515  00184A  908D               	bcf	3981,0,c	;volatile
  2516                           
  2517                           ;lcd.c: 129: LATEbits.LATE1 = 0;
  2518  00184C  928D               	bcf	3981,1,c	;volatile
  2519                           
  2520                           ;lcd.c: 130: LCDcmd(0b00000001);
  2521  00184E  0E01               	movlw	1
  2522  001850  EC2D  F00C         	call	_LCDcmd
  2523                           
  2524                           ;lcd.c: 131: LCDcheckBF();
  2525  001854  EC12  F00C         	call	_LCDcheckBF	;wreg free
  2526  001858  0012               	return		;funcret
  2527  00185A                     __end_of_LCDclear:
  2528                           	opt stack 0
  2529                           tblptru	equ	0xFF8
  2530                           tblptrh	equ	0xFF7
  2531                           tblptrl	equ	0xFF6
  2532                           tablat	equ	0xFF5
  2533                           prodh	equ	0xFF4
  2534                           prodl	equ	0xFF3
  2535                           intcon	equ	0xFF2
  2536                           postinc0	equ	0xFEE
  2537                           wreg	equ	0xFE8
  2538                           postdec1	equ	0xFE5
  2539                           fsr1l	equ	0xFE1
  2540                           postinc2	equ	0xFDE
  2541                           postdec2	equ	0xFDD
  2542                           fsr2h	equ	0xFDA
  2543                           fsr2l	equ	0xFD9
  2544                           status	equ	0xFD8
  2545                           
  2546 ;; *************** function _LCDcmd *****************
  2547 ;; Defined at:
  2548 ;;		line 94 in file "lcd.c"
  2549 ;; Parameters:    Size  Location     Type
  2550 ;;  command         1    wreg     unsigned char 
  2551 ;; Auto vars:     Size  Location     Type
  2552 ;;  command         1   17[COMRAM] unsigned char 
  2553 ;; Return value:  Size  Location     Type
  2554 ;;                  1    wreg      void 
  2555 ;; Registers used:
  2556 ;;		wreg
  2557 ;; Tracked objects:
  2558 ;;		On entry : 0/0
  2559 ;;		On exit  : 0/0
  2560 ;;		Unchanged: 0/0
  2561 ;; Data sizes:     COMRAM   BANK0   BANK1   BANK2   BANK3   BANK4   BANK5   BANK6   BANK7   BANK8   BANK9  BANK10  BANK1
      +1  BANK12  BANK13  BANK14  BANK15
  2562 ;;      Params:         0       0       0       0       0       0       0       0       0       0       0       0       
      +0       0       0       0       0
  2563 ;;      Locals:         1       0       0       0       0       0       0       0       0       0       0       0       
      +0       0       0       0       0
  2564 ;;      Temps:          0       0       0       0       0       0       0       0       0       0       0       0       
      +0       0       0       0       0
  2565 ;;      Totals:         1       0       0       0       0       0       0       0       0       0       0       0       
      +0       0       0       0       0
  2566 ;;Total ram usage:        1 bytes
  2567 ;; Hardware stack levels used:    1
  2568 ;; Hardware stack levels required when called:    1
  2569 ;; This function calls:
  2570 ;;		Nothing
  2571 ;; This function is called by:
  2572 ;;		_LCDinit
  2573 ;;		_LCDwrite
  2574 ;;		_LCDclear
  2575 ;;		_LCDgotoLineOne
  2576 ;;		_LCDgotoLineTwo
  2577 ;; This function uses a non-reentrant model
  2578 ;;
  2579                           
  2580                           	psect	text14
  2581  00185A                     __ptext14:
  2582                           	opt stack 0
  2583  00185A                     _LCDcmd:
  2584                           	opt stack 26
  2585                           
  2586                           ;incstack = 0
  2587                           ;LCDcmd@command stored from wreg
  2588  00185A  6E12               	movwf	LCDcmd@command,c
  2589                           
  2590                           ;lcd.c: 96: LATA = command;
  2591  00185C  C012  FF89         	movff	LCDcmd@command,3977	;volatile
  2592                           
  2593                           ;lcd.c: 97: LATEbits.LATE2 = 0;
  2594  001860  948D               	bcf	3981,2,c	;volatile
  2595                           
  2596                           ;lcd.c: 98: LATEbits.LATE2 = 1;
  2597  001862  848D               	bsf	3981,2,c	;volatile
  2598  001864  0012               	return		;funcret
  2599  001866                     __end_of_LCDcmd:
  2600                           	opt stack 0
  2601                           tblptru	equ	0xFF8
  2602                           tblptrh	equ	0xFF7
  2603                           tblptrl	equ	0xFF6
  2604                           tablat	equ	0xFF5
  2605                           prodh	equ	0xFF4
  2606                           prodl	equ	0xFF3
  2607                           intcon	equ	0xFF2
  2608                           postinc0	equ	0xFEE
  2609                           wreg	equ	0xFE8
  2610                           postdec1	equ	0xFE5
  2611                           fsr1l	equ	0xFE1
  2612                           postinc2	equ	0xFDE
  2613                           postdec2	equ	0xFDD
  2614                           fsr2h	equ	0xFDA
  2615                           fsr2l	equ	0xFD9
  2616                           status	equ	0xFD8
  2617                           
  2618 ;; *************** function _LCDcheckBF *****************
  2619 ;; Defined at:
  2620 ;;		line 101 in file "lcd.c"
  2621 ;; Parameters:    Size  Location     Type
  2622 ;;		None
  2623 ;; Auto vars:     Size  Location     Type
  2624 ;;		None
  2625 ;; Return value:  Size  Location     Type
  2626 ;;                  1    wreg      void 
  2627 ;; Registers used:
  2628 ;;		None
  2629 ;; Tracked objects:
  2630 ;;		On entry : 0/0
  2631 ;;		On exit  : 0/0
  2632 ;;		Unchanged: 0/0
  2633 ;; Data sizes:     COMRAM   BANK0   BANK1   BANK2   BANK3   BANK4   BANK5   BANK6   BANK7   BANK8   BANK9  BANK10  BANK1
      +1  BANK12  BANK13  BANK14  BANK15
  2634 ;;      Params:         0       0       0       0       0       0       0       0       0       0       0       0       
      +0       0       0       0       0
  2635 ;;      Locals:         0       0       0       0       0       0       0       0       0       0       0       0       
      +0       0       0       0       0
  2636 ;;      Temps:          0       0       0       0       0       0       0       0       0       0       0       0       
      +0       0       0       0       0
  2637 ;;      Totals:         0       0       0       0       0       0       0       0       0       0       0       0       
      +0       0       0       0       0
  2638 ;;Total ram usage:        0 bytes
  2639 ;; Hardware stack levels used:    1
  2640 ;; Hardware stack levels required when called:    1
  2641 ;; This function calls:
  2642 ;;		Nothing
  2643 ;; This function is called by:
  2644 ;;		_LCDinit
  2645 ;;		_LCDwrite
  2646 ;;		_LCDclear
  2647 ;;		_LCDgotoLineOne
  2648 ;;		_LCDgotoLineTwo
  2649 ;; This function uses a non-reentrant model
  2650 ;;
  2651                           
  2652                           	psect	text15
  2653  001824                     __ptext15:
  2654                           	opt stack 0
  2655  001824                     _LCDcheckBF:
  2656                           	opt stack 26
  2657                           
  2658                           ;lcd.c: 103: TRISAbits.TRISA7 = 1;
  2659                           
  2660                           ;incstack = 0
  2661  001824  8E92               	bsf	3986,7,c	;volatile
  2662                           
  2663                           ;lcd.c: 104: LATEbits.LATE0 = 0;
  2664  001826  908D               	bcf	3981,0,c	;volatile
  2665                           
  2666                           ;lcd.c: 105: LATEbits.LATE1 = 1;
  2667  001828  828D               	bsf	3981,1,c	;volatile
  2668  00182A                     l215:
  2669                           
  2670                           ;lcd.c: 110: {
  2671                           ;lcd.c: 111: LATEbits.LATE2 = 0;
  2672  00182A  948D               	bcf	3981,2,c	;volatile
  2673                           
  2674                           ;lcd.c: 112: LATEbits.LATE2 = 1;
  2675  00182C  848D               	bsf	3981,2,c	;volatile
  2676  00182E  BE80               	btfsc	3968,7,c	;volatile
  2677  001830  D7FC               	goto	l215
  2678                           
  2679                           ;lcd.c: 113: }
  2680                           ;lcd.c: 114: LATEbits.LATE2 = 1;
  2681  001832  848D               	bsf	3981,2,c	;volatile
  2682                           
  2683                           ;lcd.c: 115: TRISAbits.TRISA7 = 0;
  2684  001834  9E92               	bcf	3986,7,c	;volatile
  2685  001836  0012               	return		;funcret
  2686  001838                     __end_of_LCDcheckBF:
  2687                           	opt stack 0
  2688                           tblptru	equ	0xFF8
  2689                           tblptrh	equ	0xFF7
  2690                           tblptrl	equ	0xFF6
  2691                           tablat	equ	0xFF5
  2692                           prodh	equ	0xFF4
  2693                           prodl	equ	0xFF3
  2694                           intcon	equ	0xFF2
  2695                           postinc0	equ	0xFEE
  2696                           wreg	equ	0xFE8
  2697                           postdec1	equ	0xFE5
  2698                           fsr1l	equ	0xFE1
  2699                           postinc2	equ	0xFDE
  2700                           postdec2	equ	0xFDD
  2701                           fsr2h	equ	0xFDA
  2702                           fsr2l	equ	0xFD9
  2703                           status	equ	0xFD8
  2704                           
  2705 ;; *************** function _ISR *****************
  2706 ;; Defined at:
  2707 ;;		line 234 in file "main.c"
  2708 ;; Parameters:    Size  Location     Type
  2709 ;;		None
  2710 ;; Auto vars:     Size  Location     Type
  2711 ;;  dummy           1   16[COMRAM] unsigned char 
  2712 ;; Return value:  Size  Location     Type
  2713 ;;                  1    wreg      void 
  2714 ;; Registers used:
  2715 ;;		wreg, status,2, status,0
  2716 ;; Tracked objects:
  2717 ;;		On entry : 0/0
  2718 ;;		On exit  : 0/0
  2719 ;;		Unchanged: 0/0
  2720 ;; Data sizes:     COMRAM   BANK0   BANK1   BANK2   BANK3   BANK4   BANK5   BANK6   BANK7   BANK8   BANK9  BANK10  BANK1
      +1  BANK12  BANK13  BANK14  BANK15
  2721 ;;      Params:         0       0       0       0       0       0       0       0       0       0       0       0       
      +0       0       0       0       0
  2722 ;;      Locals:         1       0       0       0       0       0       0       0       0       0       0       0       
      +0       0       0       0       0
  2723 ;;      Temps:         16       0       0       0       0       0       0       0       0       0       0       0       
      +0       0       0       0       0
  2724 ;;      Totals:        17       0       0       0       0       0       0       0       0       0       0       0       
      +0       0       0       0       0
  2725 ;;Total ram usage:       17 bytes
  2726 ;; Hardware stack levels used:    1
  2727 ;; This function calls:
  2728 ;;		Nothing
  2729 ;; This function is called by:
  2730 ;;		Interrupt level 2
  2731 ;; This function uses a non-reentrant model
  2732 ;;
  2733                           
  2734                           	psect	intcode
  2735  000008                     __pintcode:
  2736                           	opt stack 0
  2737  000008                     _ISR:
  2738                           	opt stack 26
  2739                           
  2740                           ;incstack = 0
  2741  000008  824E               	bsf	btemp,1,c	;set compiler interrupt flag (level 2)
  2742  00000A  CFFA F003          	movff	pclath,??_ISR+2
  2743  00000E  CFFB F004          	movff	pclatu,??_ISR+3
  2744  000012  CFE9 F005          	movff	fsr0l,??_ISR+4
  2745  000016  CFEA F006          	movff	fsr0h,??_ISR+5
  2746  00001A  CFE1 F007          	movff	fsr1l,??_ISR+6
  2747  00001E  CFE2 F008          	movff	fsr1h,??_ISR+7
  2748  000022  CFD9 F009          	movff	fsr2l,??_ISR+8
  2749  000026  CFDA F00A          	movff	fsr2h,??_ISR+9
  2750  00002A  CFF3 F00B          	movff	prodl,??_ISR+10
  2751  00002E  CFF4 F00C          	movff	prodh,??_ISR+11
  2752  000032  CFF6 F00D          	movff	tblptrl,??_ISR+12
  2753  000036  CFF7 F00E          	movff	tblptrh,??_ISR+13
  2754  00003A  CFF8 F00F          	movff	tblptru,??_ISR+14
  2755  00003E  CFF5 F010          	movff	tablat,??_ISR+15
  2756                           
  2757                           ;main.c: 237: if (CCP2IE && CCP2IF)
  2758  000042  B0A0               	btfsc	4000,0,c	;volatile
  2759  000044  A0A1               	btfss	4001,0,c	;volatile
  2760  000046  D01F               	goto	i2l1290
  2761                           
  2762                           ;main.c: 238: {
  2763                           ;main.c: 239: CCP2IE = 0;
  2764  000048  90A0               	bcf	4000,0,c	;volatile
  2765                           
  2766                           ;main.c: 241: if(LATDbits.LATD1 == 1)
  2767  00004A  A28C               	btfss	3980,1,c	;volatile
  2768  00004C  D010               	goto	i2l138
  2769                           
  2770                           ;main.c: 242: {
  2771                           ;main.c: 243: LATDbits.LATD1 = 0;
  2772  00004E  928C               	bcf	3980,1,c	;volatile
  2773                           
  2774                           ;main.c: 244: CCPR2 = 8000 - CCPR2;
  2775  000050  CF67 F001          	movff	3943,??_ISR	;volatile
  2776  000054  CF68 F002          	movff	3944,??_ISR+1	;volatile
  2777  000058  1E01               	comf	??_ISR,f,c
  2778  00005A  1E02               	comf	??_ISR+1,f,c
  2779  00005C  4A01               	infsnz	??_ISR,f,c
  2780  00005E  2A02               	incf	??_ISR+1,f,c
  2781  000060  0E40               	movlw	64
  2782  000062  2401               	addwf	??_ISR,w,c
  2783  000064  6E67               	movwf	3943,c	;volatile
  2784  000066  0E1F               	movlw	31
  2785  000068  2002               	addwfc	??_ISR+1,w,c
  2786  00006A  6E68               	movwf	3944,c	;volatile
  2787                           
  2788                           ;main.c: 245: }
  2789  00006C  D005               	goto	i2l1284
  2790  00006E                     i2l138:
  2791                           
  2792                           ;main.c: 246: else
  2793                           ;main.c: 247: {
  2794                           ;main.c: 248: LATDbits.LATD1 = 1;
  2795  00006E  828C               	bsf	3980,1,c	;volatile
  2796                           
  2797                           ;main.c: 249: CCPR2 = leftWheelCommandedPW;
  2798  000070  C04A  FF67         	movff	_leftWheelCommandedPW,3943	;volatile
  2799  000074  C04B  FF68         	movff	_leftWheelCommandedPW+1,3944	;volatile
  2800  000078                     i2l1284:
  2801                           
  2802                           ;main.c: 250: }
  2803                           ;main.c: 251: TMR5 = 0;
  2804  000078  0E00               	movlw	0
  2805  00007A  010F               	movlb	15	; () banked
  2806  00007C  6F50               	movwf	80,b	;volatile
  2807  00007E  0E00               	movlw	0
  2808  000080  6F4F               	movwf	79,b	;volatile
  2809                           
  2810                           ; BSR set to: 15
  2811                           ;main.c: 252: CCP2IF = 0;
  2812  000082  90A1               	bcf	4001,0,c	;volatile
  2813                           
  2814                           ; BSR set to: 15
  2815                           ;main.c: 253: CCP2IE = 1;
  2816  000084  80A0               	bsf	4000,0,c	;volatile
  2817  000086                     i2l1290:
  2818                           
  2819                           ;main.c: 255: }
  2820                           ;main.c: 259: if (CCP3IE && CCP3IF)
  2821  000086  B07A               	btfsc	3962,0,c	;volatile
  2822  000088  A07B               	btfss	3963,0,c	;volatile
  2823  00008A  D020               	goto	i2l1306
  2824                           
  2825                           ;main.c: 260: {
  2826                           ;main.c: 261: CCP3IE = 0;
  2827  00008C  907A               	bcf	3962,0,c	;volatile
  2828                           
  2829                           ;main.c: 263: if(LATDbits.LATD0 == 1)
  2830  00008E  A08C               	btfss	3980,0,c	;volatile
  2831  000090  D012               	goto	i2l141
  2832                           
  2833                           ;main.c: 264: {
  2834                           ;main.c: 265: LATDbits.LATD0 = 0;
  2835  000092  908C               	bcf	3980,0,c	;volatile
  2836                           
  2837                           ;main.c: 266: CCPR3 = 8000 - CCPR3;
  2838  000094  CF5E F001          	movff	3934,??_ISR	;volatile
  2839  000098  CF5F F002          	movff	3935,??_ISR+1	;volatile
  2840  00009C  1E01               	comf	??_ISR,f,c
  2841  00009E  1E02               	comf	??_ISR+1,f,c
  2842  0000A0  4A01               	infsnz	??_ISR,f,c
  2843  0000A2  2A02               	incf	??_ISR+1,f,c
  2844  0000A4  0E40               	movlw	64
  2845  0000A6  2401               	addwf	??_ISR,w,c
  2846  0000A8  010F               	movlb	15	; () banked
  2847  0000AA  6F5E               	movwf	94,b	;volatile
  2848  0000AC  0E1F               	movlw	31
  2849  0000AE  2002               	addwfc	??_ISR+1,w,c
  2850  0000B0  010F               	movlb	15	; () banked
  2851  0000B2  6F5F               	movwf	95,b	;volatile
  2852                           
  2853                           ;main.c: 267: }
  2854  0000B4  D005               	goto	i2l1300
  2855  0000B6                     i2l141:
  2856                           
  2857                           ;main.c: 268: else
  2858                           ;main.c: 269: {
  2859                           ;main.c: 270: LATDbits.LATD0 = 1;
  2860  0000B6  808C               	bsf	3980,0,c	;volatile
  2861                           
  2862                           ;main.c: 271: CCPR3 = rightWheelCommandedPW;
  2863  0000B8  C04C  FF5E         	movff	_rightWheelCommandedPW,3934	;volatile
  2864  0000BC  C04D  FF5F         	movff	_rightWheelCommandedPW+1,3935	;volatile
  2865  0000C0                     i2l1300:
  2866                           
  2867                           ;main.c: 272: }
  2868                           ;main.c: 273: TMR1 = 0;
  2869  0000C0  0E00               	movlw	0
  2870  0000C2  6ECF               	movwf	4047,c	;volatile
  2871  0000C4  0E00               	movlw	0
  2872  0000C6  6ECE               	movwf	4046,c	;volatile
  2873                           
  2874                           ;main.c: 274: CCP3IF = 0;
  2875  0000C8  907B               	bcf	3963,0,c	;volatile
  2876                           
  2877                           ;main.c: 275: CCP3IE = 1;
  2878  0000CA  807A               	bsf	3962,0,c	;volatile
  2879  0000CC                     i2l1306:
  2880                           
  2881                           ;main.c: 277: }
  2882                           ;main.c: 287: if(C2IF && C2IE)
  2883  0000CC  BAA1               	btfsc	4001,5,c	;volatile
  2884  0000CE  AAA0               	btfss	4000,5,c	;volatile
  2885  0000D0  D009               	goto	i2l1316
  2886                           
  2887                           ;main.c: 288: {
  2888                           ;main.c: 289: rightWheelCount++;
  2889  0000D2  0E01               	movlw	1
  2890  0000D4  263F               	addwf	_rightWheelCount,f,c
  2891  0000D6  0E00               	movlw	0
  2892  0000D8  2240               	addwfc	_rightWheelCount+1,f,c
  2893  0000DA  2241               	addwfc	_rightWheelCount+2,f,c
  2894  0000DC  2242               	addwfc	_rightWheelCount+3,f,c
  2895                           
  2896                           ;main.c: 290: char dummy = CM2CON0;
  2897  0000DE  CF78 F011          	movff	3960,ISR@dummy	;volatile
  2898                           
  2899                           ;main.c: 291: C2IF = 0;
  2900  0000E2  9AA1               	bcf	4001,5,c	;volatile
  2901  0000E4                     i2l1316:
  2902                           
  2903                           ;main.c: 292: }
  2904                           ;main.c: 297: if (TMR2IE && TMR2IF)
  2905  0000E4  B29D               	btfsc	3997,1,c	;volatile
  2906  0000E6  A29E               	btfss	3998,1,c	;volatile
  2907  0000E8  D007               	goto	i2l145
  2908                           
  2909                           ;main.c: 298: {
  2910                           ;main.c: 299: elapsedMillis++;
  2911  0000EA  0E01               	movlw	1
  2912  0000EC  2637               	addwf	_elapsedMillis,f,c
  2913  0000EE  0E00               	movlw	0
  2914  0000F0  2238               	addwfc	_elapsedMillis+1,f,c
  2915  0000F2  2239               	addwfc	_elapsedMillis+2,f,c
  2916  0000F4  223A               	addwfc	_elapsedMillis+3,f,c
  2917                           
  2918                           ;main.c: 300: PIR1bits.TMR2IF = 0;
  2919  0000F6  929E               	bcf	3998,1,c	;volatile
  2920  0000F8                     i2l145:
  2921  0000F8  C010  FFF5         	movff	??_ISR+15,tablat
  2922  0000FC  C00F  FFF8         	movff	??_ISR+14,tblptru
  2923  000100  C00E  FFF7         	movff	??_ISR+13,tblptrh
  2924  000104  C00D  FFF6         	movff	??_ISR+12,tblptrl
  2925  000108  C00C  FFF4         	movff	??_ISR+11,prodh
  2926  00010C  C00B  FFF3         	movff	??_ISR+10,prodl
  2927  000110  C00A  FFDA         	movff	??_ISR+9,fsr2h
  2928  000114  C009  FFD9         	movff	??_ISR+8,fsr2l
  2929  000118  C008  FFE2         	movff	??_ISR+7,fsr1h
  2930  00011C  C007  FFE1         	movff	??_ISR+6,fsr1l
  2931  000120  C006  FFEA         	movff	??_ISR+5,fsr0h
  2932  000124  C005  FFE9         	movff	??_ISR+4,fsr0l
  2933  000128  C004  FFFB         	movff	??_ISR+3,pclatu
  2934  00012C  C003  FFFA         	movff	??_ISR+2,pclath
  2935  000130  924E               	bcf	btemp,1,c	;clear compiler interrupt flag (level 2)
  2936  000132  0011               	retfie		f
  2937  000134                     __end_of_ISR:
  2938                           	opt stack 0
  2939                           pclatu	equ	0xFFB
  2940                           pclath	equ	0xFFA
  2941                           tblptru	equ	0xFF8
  2942                           tblptrh	equ	0xFF7
  2943                           tblptrl	equ	0xFF6
  2944                           tablat	equ	0xFF5
  2945                           prodh	equ	0xFF4
  2946                           prodl	equ	0xFF3
  2947                           intcon	equ	0xFF2
  2948                           postinc0	equ	0xFEE
  2949                           fsr0h	equ	0xFEA
  2950                           fsr0l	equ	0xFE9
  2951                           wreg	equ	0xFE8
  2952                           postdec1	equ	0xFE5
  2953                           fsr1h	equ	0xFE2
  2954                           fsr1l	equ	0xFE1
  2955                           postinc2	equ	0xFDE
  2956                           postdec2	equ	0xFDD
  2957                           fsr2h	equ	0xFDA
  2958                           fsr2l	equ	0xFD9
  2959                           status	equ	0xFD8
  2960                           pclatu	equ	0xFFB
  2961                           pclath	equ	0xFFA
  2962                           tblptru	equ	0xFF8
  2963                           tblptrh	equ	0xFF7
  2964                           tblptrl	equ	0xFF6
  2965                           tablat	equ	0xFF5
  2966                           prodh	equ	0xFF4
  2967                           prodl	equ	0xFF3
  2968                           intcon	equ	0xFF2
  2969                           postinc0	equ	0xFEE
  2970                           fsr0h	equ	0xFEA
  2971                           fsr0l	equ	0xFE9
  2972                           wreg	equ	0xFE8
  2973                           postdec1	equ	0xFE5
  2974                           fsr1h	equ	0xFE2
  2975                           fsr1l	equ	0xFE1
  2976                           postinc2	equ	0xFDE
  2977                           postdec2	equ	0xFDD
  2978                           fsr2h	equ	0xFDA
  2979                           fsr2l	equ	0xFD9
  2980                           status	equ	0xFD8
  2981                           
  2982                           	psect	rparam
  2983  0000                     pclatu	equ	0xFFB
  2984                           pclath	equ	0xFFA
  2985                           tblptru	equ	0xFF8
  2986                           tblptrh	equ	0xFF7
  2987                           tblptrl	equ	0xFF6
  2988                           tablat	equ	0xFF5
  2989                           prodh	equ	0xFF4
  2990                           prodl	equ	0xFF3
  2991                           intcon	equ	0xFF2
  2992                           postinc0	equ	0xFEE
  2993                           fsr0h	equ	0xFEA
  2994                           fsr0l	equ	0xFE9
  2995                           wreg	equ	0xFE8
  2996                           postdec1	equ	0xFE5
  2997                           fsr1h	equ	0xFE2
  2998                           fsr1l	equ	0xFE1
  2999                           postinc2	equ	0xFDE
  3000                           postdec2	equ	0xFDD
  3001                           fsr2h	equ	0xFDA
  3002                           fsr2l	equ	0xFD9
  3003                           status	equ	0xFD8
  3004                           
  3005                           	psect	temp
  3006  00004E                     btemp:
  3007                           	opt stack 0
  3008  00004E                     	ds	1
  3009  0000                     int$flags	set	btemp
  3010                           pclatu	equ	0xFFB
  3011                           pclath	equ	0xFFA
  3012                           tblptru	equ	0xFF8
  3013                           tblptrh	equ	0xFF7
  3014                           tblptrl	equ	0xFF6
  3015                           tablat	equ	0xFF5
  3016                           prodh	equ	0xFF4
  3017                           prodl	equ	0xFF3
  3018                           intcon	equ	0xFF2
  3019                           postinc0	equ	0xFEE
  3020                           fsr0h	equ	0xFEA
  3021                           fsr0l	equ	0xFE9
  3022                           wreg	equ	0xFE8
  3023                           postdec1	equ	0xFE5
  3024                           fsr1h	equ	0xFE2
  3025                           fsr1l	equ	0xFE1
  3026                           postinc2	equ	0xFDE
  3027                           postdec2	equ	0xFDD
  3028                           fsr2h	equ	0xFDA
  3029                           fsr2l	equ	0xFD9
  3030                           status	equ	0xFD8


Data Sizes:
    Strings     21
    Constant    10
    Data        4
    BSS         19
    Persistent  0
    Stack       0

Auto Spaces:
    Space          Size  Autos    Used
    COMRAM           94     54      77
    BANK0           160     16      16
    BANK1           256      0       0
    BANK2           256      0       0
    BANK3           256      0       0
    BANK4           256      0       0
    BANK5           256      0       0
    BANK6           256      0       0
    BANK7           256      0       0
    BANK8           256      0       0
    BANK9           256      0       0
    BANK10          256      0       0
    BANK11          256      0       0
    BANK12          256      0       0
    BANK13          256      0       0
    BANK14          256      0       0
    BANK15           56      0       0

Pointer List with Targets:

    printf@f	PTR const unsigned char  size(2) Largest target is 11
		 -> STR_2(CODE[10]), STR_1(CODE[11]), 

    printf@ap	PTR void [1] size(2) Largest target is 2
		 -> ?_printf(COMRAM[2]), 


Critical Paths under _main in COMRAM

    _main->_printf
    _printf->___lwmod
    _putch->_LCDwrite
    _LCDwrite->_LCDcmd
    ___lwmod->___lwdiv
    ___lldiv->___lmul
    _LCDinit->_LCDcmd
    _LCDclear->_LCDcmd

Critical Paths under _ISR in COMRAM

    None.

Critical Paths under _main in BANK0

    None.

Critical Paths under _ISR in BANK0

    None.

Critical Paths under _main in BANK1

    None.

Critical Paths under _ISR in BANK1

    None.

Critical Paths under _main in BANK2

    None.

Critical Paths under _ISR in BANK2

    None.

Critical Paths under _main in BANK3

    None.

Critical Paths under _ISR in BANK3

    None.

Critical Paths under _main in BANK4

    None.

Critical Paths under _ISR in BANK4

    None.

Critical Paths under _main in BANK5

    None.

Critical Paths under _ISR in BANK5

    None.

Critical Paths under _main in BANK6

    None.

Critical Paths under _ISR in BANK6

    None.

Critical Paths under _main in BANK7

    None.

Critical Paths under _ISR in BANK7

    None.

Critical Paths under _main in BANK8

    None.

Critical Paths under _ISR in BANK8

    None.

Critical Paths under _main in BANK9

    None.

Critical Paths under _ISR in BANK9

    None.

Critical Paths under _main in BANK10

    None.

Critical Paths under _ISR in BANK10

    None.

Critical Paths under _main in BANK11

    None.

Critical Paths under _ISR in BANK11

    None.

Critical Paths under _main in BANK12

    None.

Critical Paths under _ISR in BANK12

    None.

Critical Paths under _main in BANK13

    None.

Critical Paths under _ISR in BANK13

    None.

Critical Paths under _main in BANK14

    None.

Critical Paths under _ISR in BANK14

    None.

Critical Paths under _main in BANK15

    None.

Critical Paths under _ISR in BANK15

    None.

Call Graph Tables:

 ---------------------------------------------------------------------------------
 (Depth) Function   	        Calls       Base Space   Used Autos Params    Refs
 ---------------------------------------------------------------------------------
 (0) _main                                                24    24      0    3781
                                             46 COMRAM     8     8      0
                                              0 BANK0     16    16      0
                           _LCDclear
                            _LCDinit
                            ___lldiv
                             ___lmul
               _configureComparators
                    _configureTimers
                             _printf
 ---------------------------------------------------------------------------------
 (1) _printf                                              26    22      4    2414
                                             29 COMRAM    17    13      4
                            ___lwdiv
                            ___lwmod
                             ___wmul
                            _isdigit
                              _putch
 ---------------------------------------------------------------------------------
 (2) _putch                                                1     1      0      66
                                             19 COMRAM     1     1      0
                           _LCDwrite
 ---------------------------------------------------------------------------------
 (3) _LCDwrite                                             1     1      0      44
                                             18 COMRAM     1     1      0
                         _LCDcheckBF
                             _LCDcmd
 ---------------------------------------------------------------------------------
 (2) _isdigit                                              3     3      0      99
                                             17 COMRAM     3     3      0
 ---------------------------------------------------------------------------------
 (2) ___wmul                                               6     2      4     386
                                             17 COMRAM     6     2      4
 ---------------------------------------------------------------------------------
 (2) ___lwmod                                              5     1      4     386
                                             24 COMRAM     5     1      4
                            ___lwdiv (ARG)
 ---------------------------------------------------------------------------------
 (2) ___lwdiv                                              7     3      4     395
                                             17 COMRAM     7     3      4
 ---------------------------------------------------------------------------------
 (1) _configureTimers                                      0     0      0       0
 ---------------------------------------------------------------------------------
 (1) _configureComparators                                 0     0      0       0
 ---------------------------------------------------------------------------------
 (1) ___lmul                                              12     4      8     558
                                             17 COMRAM    12     4      8
 ---------------------------------------------------------------------------------
 (1) ___lldiv                                             13     5      8     549
                                             29 COMRAM    13     5      8
                             ___lmul (ARG)
 ---------------------------------------------------------------------------------
 (1) _LCDinit                                              1     1      0      22
                                             18 COMRAM     1     1      0
                         _LCDcheckBF
                             _LCDcmd
 ---------------------------------------------------------------------------------
 (1) _LCDclear                                             0     0      0      22
                         _LCDcheckBF
                             _LCDcmd
 ---------------------------------------------------------------------------------
 (4) _LCDcmd                                               1     1      0      22
                                             17 COMRAM     1     1      0
 ---------------------------------------------------------------------------------
 (4) _LCDcheckBF                                           0     0      0       0
 ---------------------------------------------------------------------------------
 Estimated maximum stack depth 4
 ---------------------------------------------------------------------------------
 (Depth) Function   	        Calls       Base Space   Used Autos Params    Refs
 ---------------------------------------------------------------------------------
 (5) _ISR                                                 17    17      0       0
                                              0 COMRAM    17    17      0
 ---------------------------------------------------------------------------------
 Estimated maximum stack depth 5
 ---------------------------------------------------------------------------------

 Call Graph Graphs:

 _main (ROOT)
   _LCDclear
     _LCDcheckBF
     _LCDcmd
   _LCDinit
     _LCDcheckBF
     _LCDcmd
   ___lldiv
     ___lmul (ARG)
   ___lmul
   _configureComparators
   _configureTimers
   _printf
     ___lwdiv
     ___lwmod
       ___lwdiv (ARG)
     ___wmul
     _isdigit
     _putch
       _LCDwrite
         _LCDcheckBF
         _LCDcmd

 _ISR (ROOT)

 Address spaces:
Name               Size   Autos  Total    Cost      Usage
BIGRAM             F37      0       0      37        0.0%
EEDATA             400      0       0       0        0.0%
BITBANK14          100      0       0      33        0.0%
BANK14             100      0       0      34        0.0%
BITBANK13          100      0       0      31        0.0%
BANK13             100      0       0      32        0.0%
BITBANK12          100      0       0      29        0.0%
BANK12             100      0       0      30        0.0%
BITBANK11          100      0       0      27        0.0%
BANK11             100      0       0      28        0.0%
BITBANK10          100      0       0      25        0.0%
BANK10             100      0       0      26        0.0%
BITBANK9           100      0       0      23        0.0%
BANK9              100      0       0      24        0.0%
BITBANK8           100      0       0      21        0.0%
BANK8              100      0       0      22        0.0%
BITBANK7           100      0       0      19        0.0%
BANK7              100      0       0      20        0.0%
BITBANK6           100      0       0      17        0.0%
BANK6              100      0       0      18        0.0%
BITBANK5           100      0       0      15        0.0%
BANK5              100      0       0      16        0.0%
BITBANK4           100      0       0      13        0.0%
BANK4              100      0       0      14        0.0%
BITBANK3           100      0       0      10        0.0%
BANK3              100      0       0      11        0.0%
BITBANK2           100      0       0       8        0.0%
BANK2              100      0       0       9        0.0%
BITBANK1           100      0       0       6        0.0%
BANK1              100      0       0       7        0.0%
BITBANK0            A0      0       0       4        0.0%
BANK0               A0     10      10       5       10.0%
BITCOMRAM           5E      0       0       0        0.0%
COMRAM              5E     36      4D       1       81.9%
BITBANK15           38      0       0      35        0.0%
BANK15              38      0       0      36        0.0%
BITSFR_1             0      0       0      40        0.0%
SFR_1                0      0       0      40        0.0%
BITSFR               0      0       0      40        0.0%
SFR                  0      0       0      40        0.0%
STACK                0      0       0       2        0.0%
NULL                 0      0       0       0        0.0%
ABS                  0      0      5D      12        0.0%
DATA                 0      0      5D       3        0.0%
CODE                 0      0       0       0        0.0%


Microchip Technology PIC18 Macro Assembler V1.36 build -262312587 
Symbol Table                                                                                   Fri Apr 22 11:58:01 2016

          ___wmul@multiplicand 0014                   __CFG_CP0$OFF 000000                   __CFG_CP1$OFF 000000  
                 __CFG_CP2$OFF 000000                   __CFG_CP3$OFF 000000                    __CFG_LVP$ON 000000  
                          l215 182A                            l707 1764                            l644 1672  
                          l697 1722                   __CFG_CPB$OFF 000000                            _PR2 000FBB  
                 __CFG_CPD$OFF 000000                            _ISR 0008                    ?_LCDcheckBF 0001  
                          wreg 000FE8                           ?_ISR 0001                           _C2IE 007D05  
                         _C2IF 007D0D                           l1700 16F8                           l1710 1718  
                         l1702 16FC                           l1720 1742                           l1722 1746  
                         l1900 1410                           l1726 175A                           l1718 173A  
                         l1910 143C                           l1904 1424                           l1840 12B0  
                         l1682 181C                           l1914 1484                           l1850 12E8  
                         l1908 1436                           l1860 1344                           l1844 12C0  
                         l1916 148C                           l1942 16A8                           l1862 136A  
                         l1952 1624                           l1872 1392                           l1954 1630  
                         l1938 1694                           l1698 16F0                           l1874 1396  
                         l1964 1664                           l1956 1634                           l1892 13DC  
                         l1886 13C2                           l1990 10F4                           l1982 1098  
                         l1896 1400                __end_of_LCDinit 156C                           l1898 1408  
                         STR_1 100B                           STR_2 1016                           _LATA 000F89  
                         u1407 1540                           u1417 1556                           u1347 14BC  
                         u1357 14D2                           u1367 14E8                           u1377 14FE  
                         u1387 1514                           u1397 152A                           _TMR1 000FCE  
                         _TMR5 000F4F               ?_configureTimers 0001                           _main 1022  
                         fsr0h 000FEA                           fsr1h 000FE2                           fsr0l 000FE9  
                         fsr2h 000FDA                           fsr1l 000FE1                           fsr2l 000FD9  
                         btemp 004E                  __CFG_BORV$190 000000                           pclat 000FFA  
                         prodh 000FF4                           prodl 000FF3                           start 0134  
                __CFG_IESO$OFF 000000                   ___param_bank 000010                          ??_ISR 0001  
             __end_of_LCDclear 185A                          ?_main 0001                          _CCPR2 000F67  
                        _CCPR3 000F5E                __end_of___lldiv 1684                          _T1CON 000FCD  
                        _T2CON 000FBA                          _T5CON 000F4E                __end_of___lwdiv 172C  
              __end_of___lwmod 176E                          i2l141 00B6                          i2l145 00F8  
                        i2l138 006E               __end_of_LCDwrite 184A                          _TRISA 000F92  
                __CFG_WRT0$OFF 000000                  __CFG_WRT1$OFF 000000                  __CFG_WRT2$OFF 000000  
          ___lmul@multiplicand 0016                  __CFG_WRT3$OFF 000000                 __CFG_EBTR0$OFF 000000  
               __CFG_FCMEN$OFF 000000                 __CFG_EBTR1$OFF 000000                 __CFG_EBTR2$OFF 000000  
               __CFG_EBTR3$OFF 000000                  __CFG_WRTB$OFF 000000                  __CFG_WRTC$OFF 000000  
                __CFG_WRTD$OFF 000000                 __CFG_EBTRB$OFF 000000                __end_of_dpowers 100B  
                        _event 0045                __end_of_isdigit 1824             __CFG_MCLRE$EXTMCLR 000000  
                        _putch 1866                          tablat 000FF5                          status 000FD8  
               __CFG_HFOFST$ON 000000            __size_of_LCDcheckBF 0014                __initialization 176E  
                 __end_of_main 12A6                         ??_main 002F                  __activetblptr 000002  
                    ??_LCDinit 0013            main@speedLastMillis 006C   __end_of_configureComparators 17E0  
                       _CCP2IE 007D00                         _CCP2IF 007D08                         _CCP3IE 007BD0  
                       _CCP3IF 007BD8                         ?_putch 0001                         _ANSELD 000F3B  
                       i2l1300 00C0                         i2l1306 00CC                         i2l1316 00E4  
                       i2l1290 0086                         i2l1284 0078                 __CFG_WDTEN$OFF 000000  
                       _LCDcmd 185A                         _TMR2IE 007CE9                         _TMR2IF 007CF1  
                       _TMR1ON 007E68                         _TMR5ON 007A70                 __CFG_PWRTEN$ON 000000  
               __CFG_XINST$OFF 000000                   _CCPTMRS0bits 000F49                         ___lmul 1684  
                       ___wmul 17E0                 __CFG_STVREN$ON 000000                      ??___lldiv 0026  
                    ??___lwdiv 0016                      ??___lwmod 001D                 _leftWheelCount 003B  
                       clear_0 1774                         _printf 12A6                   __pdataCOMRAM 004A  
                    ??_isdigit 0012                   __mediumconst 0000                         tblptrh 000FF7  
                       tblptrl 000FF6                         tblptru 000FF8          main@controlLastMillis 0060  
                   __accesstop 0060        __end_of__initialization 179A                __CFG_PBADEN$OFF 000000  
                    ?_LCDclear 0001                  ___rparam_used 000001                      ?_LCDwrite 0001  
               __pcstackCOMRAM 0001                  __end_of_putch 1870                   ??_LCDcheckBF 0012  
                      ??_putch 0014                        ?_LCDcmd 0001          _rightWheelCommandedPW 004C  
              __CFG_PLLCFG$OFF 000000                     ??_LCDclear 0013                     ??_LCDwrite 0013  
           __end_of_LCDcheckBF 1838             __CFG_CCP2MX$PORTB3 000000                        ?___lmul 0012  
                      ?___wmul 0012             __CFG_CCP3MX$PORTB5 000000           main@leftCountTracker 0068  
         _configureComparators 17A8                        _CM2CON0 000F78                        _CCP2CON 000F66  
                      _CCP3CON 000F5D                 ___lmul@product 001A                        ?_printf 001E  
                      _LCDinit 14A6                __size_of_LCDcmd 000C                        __Hparam 0000  
                      __Lparam 0000       __size_of_configureTimers 0096                __size_of___lmul 0056  
        ?_configureComparators 0001                        ___lldiv 1602                __size_of___wmul 0026  
                      ___lwdiv 16DA                        ___lwmod 172C                   __psmallconst 1000  
                      __pcinit 176E                        __ramtop 1000                        __ptext0 1022  
                      __ptext1 12A6                        __ptext2 1866                        __ptext3 1838  
                      __ptext4 1806                        __ptext5 17E0                        __ptext6 172C  
                      __ptext7 16DA                        __ptext8 156C                        __ptext9 17A8  
              __size_of_printf 0200                   __size_of_ISR 012C                      _T1CONbits 000FCD  
                      _dpowers 1001                      _T2CONbits 000FBA                        _isdigit 1806  
                    _T5CONbits 000F4E           end_of_initialization 179A                  __Lmediumconst 0000  
       _leftWheelMeasuredSpeed 0046                ___lldiv@divisor 0022                ___lldiv@counter 002A  
                      printf@c 002E                        printf@f 001E              main@lcdLastMillis 0064  
                      postdec1 000FE5                        postdec2 000FDD                        postinc0 000FEE  
                      postinc2 000FDE                      _PORTAbits 000F80                      _PORTBbits 000F81  
                    _TRISAbits 000F92                      _TRISBbits 000F93                      _TRISDbits 000F95  
                    _TRISEbits 000F96                  LCDcmd@command 0012                    _CM2CON0bits 000F78  
                  _CM2CON1bits 000F77                 __end_of_LCDcmd 1866                    printf@width 002C  
                  _CCP2CONbits 000F66                    _CCP3CONbits 000F5D              __size_of_LCDclear 0010  
       ??_configureComparators 0012              __size_of_LCDwrite 0012        _rightWheelMeasuredSpeed 0048  
         _leftWheelCommandedPW 004A                 __end_of___lmul 16DA                 __end_of___wmul 1806  
                __pidataCOMRAM 1870              ??_configureTimers 0012                 __end_of_printf 14A6  
          start_initialization 176E                    __end_of_ISR 0134                       ??_LCDcmd 0012  
                     ??___lmul 001A                       ??___wmul 0016                _rightWheelCount 003F  
                     ??_printf 0022                    __pbssCOMRAM 0037                       ?_LCDinit 0001  
                __pcstackBANK0 0060                   _isdigit$1662 0013                       ISR@dummy 0011  
             ___lwdiv@dividend 0012                      __pintcode 0008                       ?___lldiv 001E  
                     ?___lwdiv 0012                       ?___lwmod 0019               __CFG_PRICLKEN$ON 000000  
                  __smallconst 1000                       ?_isdigit 0001               ___lwdiv@quotient 0017  
               __size_of_putch 000A                 ___wmul@product 0016                       _LATDbits 000F8C  
                     _LATEbits 000F8D                       _LCDclear 184A                       _PIE1bits 000F9D  
                     _PIE2bits 000FA0                       _LCDwrite 1838                       _PIR1bits 000F9E  
                     _PIR2bits 000FA1               __CFG_WDTPS$32768 000000              ___wmul@multiplier 0012  
                   printf@flag 0029                     printf@prec 0028                       _WPUBbits 000F61  
             __size_of_LCDinit 00C6              ___lmul@multiplier 0012                      copy_data0 178E  
                     __Hrparam 0000                _configureTimers 156C                       __Lrparam 0000  
           __CFG_BOREN$SBORDIS 000000          main@rightCountTracker 006A              __CFG_P2BMX$PORTD2 000000  
             __size_of___lldiv 0082               __size_of___lwdiv 0052               __size_of___lwmod 0042  
                   _ANSELBbits 000F39               __size_of_isdigit 001E                ___lwdiv@divisor 0014  
              ___lwdiv@counter 0016                       __ptext10 1684                       __ptext11 1602  
                     __ptext12 14A6                       __ptext13 184A                       __ptext14 185A  
                     __ptext15 1824                  _elapsedMillis 0037                  __size_of_main 0284  
                     int$flags 004E  __size_of_configureComparators 0038                      printf@val 002A  
            _speedCompensation 0043                     _LCDcheckBF 1824                      putch@data 0014  
                   _INTCONbits 000FF2                       isdigit@c 0014                       intlevel2 0000  
      __end_of_configureTimers 1602               ___lwmod@dividend 0019                   _VREFCON0bits 000F42  
             ___lldiv@dividend 001E                     _OSCCONbits 000FD3                       printf@ap 0026  
             ___lldiv@quotient 0026                ___lwmod@divisor 001B                ___lwmod@counter 001D  
            __CFG_T3CMX$PORTB5 000000              __CFG_FOSC$INTIO67 000000                  LCDwrite@input 0013  
